; Listing generated by Microsoft (R) Optimizing Compiler Version 19.00.24215.1 

include listing.inc

INCLUDELIB MSVCRTD
INCLUDELIB OLDNAMES

PUBLIC	?SYCL_parallel_for_cpp_bin_spir64@?A0xcf7f8366@detail@sycl@cl@@3PAEA ; cl::sycl::detail::`anonymous namespace'::SYCL_parallel_for_cpp_bin_spir64
PUBLIC	?name@?$kernel_info@Vassign_elements@@@?A0xcf7f8366@detail@sycl@cl@@2PEBDEB ; cl::sycl::detail::`anonymous namespace'::kernel_info<assign_elements>::name
PUBLIC	?bin_count@?$kernel_info@Vassign_elements@@@?A0xcf7f8366@detail@sycl@cl@@2_KB ; cl::sycl::detail::`anonymous namespace'::kernel_info<assign_elements>::bin_count
PUBLIC	?bin_info@?$kernel_info@Vassign_elements@@@?A0xcf7f8366@detail@sycl@cl@@2QBQEBUkernel_binary_info@345@B ; cl::sycl::detail::`anonymous namespace'::kernel_info<assign_elements>::bin_info
PUBLIC	?arg_size@?$kernel_info@Vassign_elements@@@?A0xcf7f8366@detail@sycl@cl@@2_KB ; cl::sycl::detail::`anonymous namespace'::kernel_info<assign_elements>::arg_size
PUBLIC	?arg_sizes@?$kernel_info@Vassign_elements@@@?A0xcf7f8366@detail@sycl@cl@@2QB_KB ; cl::sycl::detail::`anonymous namespace'::kernel_info<assign_elements>::arg_sizes
PUBLIC	?arg_offsets@?$kernel_info@Vassign_elements@@@?A0xcf7f8366@detail@sycl@cl@@2QB_KB ; cl::sycl::detail::`anonymous namespace'::kernel_info<assign_elements>::arg_offsets
PUBLIC	?arg_kinds@?$kernel_info@Vassign_elements@@@?A0xcf7f8366@detail@sycl@cl@@2QBHB ; cl::sycl::detail::`anonymous namespace'::kernel_info<assign_elements>::arg_kinds
PUBLIC	?arg_class@?$kernel_info@Vassign_elements@@@?A0xcf7f8366@detail@sycl@cl@@2QBHB ; cl::sycl::detail::`anonymous namespace'::kernel_info<assign_elements>::arg_class
PUBLIC	?arg_used@?$kernel_info@Vassign_elements@@@?A0xcf7f8366@detail@sycl@cl@@2QB_NB ; cl::sycl::detail::`anonymous namespace'::kernel_info<assign_elements>::arg_used
CONST	SEGMENT
?SYCL_parallel_for_cpp_bin_spir64_features@?A0xcf7f8366@detail@sycl@cl@@3QBQEBDB DQ 0000000000000000H ; cl::sycl::detail::`anonymous namespace'::SYCL_parallel_for_cpp_bin_spir64_features
$SG49459 DB	'spir64', 00H
	ORG $+1
?bin_count@?$kernel_info@Vassign_elements@@@?A0xcf7f8366@detail@sycl@cl@@2_KB DQ 0000000000000001H ; cl::sycl::detail::`anonymous namespace'::kernel_info<assign_elements>::bin_count
?bin_info@?$kernel_info@Vassign_elements@@@?A0xcf7f8366@detail@sycl@cl@@2QBQEBUkernel_binary_info@345@B DQ FLAT:?SYCL_parallel_for_cpp_bin_spir64_info@?A0xcf7f8366@detail@sycl@cl@@3Ukernel_binary_info@234@B ; cl::sycl::detail::`anonymous namespace'::kernel_info<assign_elements>::bin_info
	DQ	0000000000000000H
?arg_size@?$kernel_info@Vassign_elements@@@?A0xcf7f8366@detail@sycl@cl@@2_KB DQ 0000000000000003H ; cl::sycl::detail::`anonymous namespace'::kernel_info<assign_elements>::arg_size
?arg_sizes@?$kernel_info@Vassign_elements@@@?A0xcf7f8366@detail@sycl@cl@@2QB_KB DQ 0000000000000008H ; cl::sycl::detail::`anonymous namespace'::kernel_info<assign_elements>::arg_sizes
	DQ	0000000000000010H
	DQ	0000000000000010H
	DQ	0000000000000000H
?arg_offsets@?$kernel_info@Vassign_elements@@@?A0xcf7f8366@detail@sycl@cl@@2QB_KB DQ 0000000000000000H ; cl::sycl::detail::`anonymous namespace'::kernel_info<assign_elements>::arg_offsets
	DQ	0000000000000008H
	DQ	0000000000000018H
	DQ	0000000000000000H
?arg_kinds@?$kernel_info@Vassign_elements@@@?A0xcf7f8366@detail@sycl@cl@@2QBHB DD 02H ; cl::sycl::detail::`anonymous namespace'::kernel_info<assign_elements>::arg_kinds
	DD	01H
	DD	01H
	DD	00H
?arg_class@?$kernel_info@Vassign_elements@@@?A0xcf7f8366@detail@sycl@cl@@2QBHB DD 01H ; cl::sycl::detail::`anonymous namespace'::kernel_info<assign_elements>::arg_class
	DD	01H
	DD	01H
	DD	00H
?arg_used@?$kernel_info@Vassign_elements@@@?A0xcf7f8366@detail@sycl@cl@@2QB_NB DB 01H ; cl::sycl::detail::`anonymous namespace'::kernel_info<assign_elements>::arg_used
	DB	00H
	DB	01H
	DB	00H
$SG93679 DB	', ', 00H
	ORG $+1
$SG49543 DB	'SYCL_class_assign_elements', 00H
	ORG $+1
$SG93681 DB	'-', 00H
	ORG $+2
?COMPUTECPP_NEGATIVE_SIGN@@3QEBDEB DQ FLAT:$SG93681	; COMPUTECPP_NEGATIVE_SIGN
?COMPUTECPP_DECIMAL_POINT@@3QEBDEB DQ FLAT:$SG93683	; COMPUTECPP_DECIMAL_POINT
$SG93683 DB	'.', 00H
	ORG $+2
$SG93685 DB	'0x', 00H
	ORG $+1
?COMPUTECPP_HEX_PREFIX@@3QEBDEB DQ FLAT:$SG93685	; COMPUTECPP_HEX_PREFIX
?COMPUTECPP_POSITIVE_EXP_PREFIX@@3QEBDEB DQ FLAT:$SG93687 ; COMPUTECPP_POSITIVE_EXP_PREFIX
$SG93687 DB	'e+', 00H
	ORG $+1
$SG93689 DB	'e-', 00H
	ORG $+1
?COMPUTECPP_NEGATIVE_EXP_PREFIX@@3QEBDEB DQ FLAT:$SG93689 ; COMPUTECPP_NEGATIVE_EXP_PREFIX
$SG93691 DB	'{ ', 00H
	ORG $+1
$SG93693 DB	' }', 00H
	ORG $+1
$SG137029 DB	'SYCL exception caught: ', 00H
$SG137032 DB	')!', 0aH, 00H
$SG137033 DB	' is ', 00H
	ORG $+7
$SG137034 DB	'The results are incorrect (element ', 00H
	ORG $+4
$SG137036 DB	'The results are correct.', 00H
CONST	ENDS
_DATA	SEGMENT
?SYCL_parallel_for_cpp_bin_spir64@?A0xcf7f8366@detail@sycl@cl@@3PAEA DB 042H ; cl::sycl::detail::`anonymous namespace'::SYCL_parallel_for_cpp_bin_spir64
	DB	043H
	DB	0c0H
	DB	0deH
	DB	021H
	DB	0cH
	DB	00H
	DB	00H
	DB	073H
	DB	02H
	DB	00H
	DB	00H
	DB	01H
	DB	010H
	DB	00H
	DB	00H
	DB	012H
	DB	00H
	DB	00H
	DB	00H
	DB	07H
	DB	081H
	DB	023H
	DB	091H
	DB	041H
	DB	0c8H
	DB	04H
	DB	049H
	DB	06H
	DB	010H
	DB	032H
	DB	039H
	DB	092H
	DB	01H
	DB	084H
	DB	0cH
	DB	025H
	DB	05H
	DB	08H
	DB	019H
	DB	01eH
	DB	04H
	DB	08bH
	DB	062H
	DB	080H
	DB	010H
	DB	045H
	DB	02H
	DB	042H
	DB	092H
	DB	0bH
	DB	042H
	DB	084H
	DB	010H
	DB	032H
	DB	014H
	DB	038H
	DB	08H
	DB	018H
	DB	049H
	DB	0aH
	DB	032H
	DB	044H
	DB	024H
	DB	048H
	DB	0aH
	DB	090H
	DB	021H
	DB	023H
	DB	0c4H
	DB	052H
	DB	080H
	DB	0cH
	DB	019H
	DB	021H
	DB	072H
	DB	024H
	DB	07H
	DB	0c8H
	DB	08H
	DB	011H
	DB	062H
	DB	0a8H
	DB	0a0H
	DB	0a8H
	DB	040H
	DB	0c6H
	DB	0f0H
	DB	01H
	DB	00H
	DB	00H
	DB	00H
	DB	049H
	DB	018H
	DB	00H
	DB	00H
	DB	09H
	DB	00H
	DB	00H
	DB	00H
	DB	0bH
	DB	084H
	DB	0ffH
	DB	0ffH
	DB	0ffH
	DB	0ffH
	DB	01fH
	DB	0c0H
	DB	030H
	DB	058H
	DB	040H
	DB	08H
	DB	020H
	DB	09H
	DB	082H
	DB	020H
	DB	048H
	DB	0fcH
	DB	0ffH
	DB	0ffH
	DB	0ffH
	DB	0ffH
	DB	00H
	DB	06H
	DB	0bH
	DB	084H
	DB	0ffH
	DB	0ffH
	DB	0ffH
	DB	0ffH
	DB	01fH
	DB	0c0H
	DB	030H
	DB	00H
	DB	00H
	DB	00H
	DB	089H
	DB	020H
	DB	00H
	DB	00H
	DB	01bH
	DB	00H
	DB	00H
	DB	00H
	DB	032H
	DB	022H
	DB	08H
	DB	09H
	DB	020H
	DB	064H
	DB	085H
	DB	04H
	DB	013H
	DB	022H
	DB	0a4H
	DB	084H
	DB	04H
	DB	013H
	DB	022H
	DB	0e3H
	DB	084H
	DB	0a1H
	DB	090H
	DB	014H
	DB	012H
	DB	04cH
	DB	088H
	DB	08cH
	DB	0bH
	DB	084H
	DB	084H
	DB	04cH
	DB	010H
	DB	034H
	DB	073H
	DB	04H
	DB	0a0H
	DB	030H
	DB	047H
	DB	00H
	DB	06H
	DB	045H
	DB	080H
	DB	020H
	DB	019H
	DB	01H
	DB	018H
	DB	044H
	DB	08H
	DB	082H
	DB	024H
	DB	088H
	DB	099H
	DB	0bcH
	DB	071H
	DB	060H
	DB	087H
	DB	070H
	DB	098H
	DB	087H
	DB	079H
	DB	070H
	DB	083H
	DB	071H
	DB	060H
	DB	07H
	DB	03dH
	DB	0d0H
	DB	083H
	DB	079H
	DB	0c8H
	DB	087H
	DB	071H
	DB	060H
	DB	07H
	DB	03dH
	DB	0d0H
	DB	083H
	DB	070H
	DB	018H
	DB	087H
	DB	071H
	DB	028H
	DB	087H
	DB	079H
	DB	098H
	DB	087H
	DB	077H
	DB	090H
	DB	087H
	DB	05fH
	DB	090H
	DB	087H
	DB	070H
	DB	070H
	DB	087H
	DB	073H
	DB	028H
	DB	07H
	DB	014H
	DB	018H
	DB	05dH
	DB	019H
	DB	0a8H
	DB	090H
	DB	072H
	DB	020H
	DB	080H
	DB	02H
	DB	00H
	DB	00H
	DB	00H
	DB	013H
	DB	0acH
	DB	079H
	DB	080H
	DB	087H
	DB	074H
	DB	090H
	DB	07H
	DB	03bH
	DB	0a0H
	DB	083H
	DB	036H
	DB	0a8H
	DB	07H
	DB	077H
	DB	058H
	DB	07H
	DB	077H
	DB	078H
	DB	087H
	DB	07bH
	DB	070H
	DB	087H
	DB	036H
	DB	0a8H
	DB	07H
	DB	077H
	DB	058H
	DB	07H
	DB	077H
	DB	078H
	DB	087H
	DB	07bH
	DB	070H
	DB	087H
	DB	0dH
	DB	0aeH
	DB	051H
	DB	0eH
	DB	06dH
	DB	00H
	DB	0fH
	DB	07aH
	DB	060H
	DB	07H
	DB	074H
	DB	0a0H
	DB	07H
	DB	076H
	DB	040H
	DB	07H
	DB	07aH
	DB	060H
	DB	07H
	DB	074H
	DB	0d0H
	DB	06H
	DB	0e9H
	DB	010H
	DB	07H
	DB	07aH
	DB	080H
	DB	07H
	DB	07aH
	DB	080H
	DB	07H
	DB	06dH
	DB	090H
	DB	0eH
	DB	078H
	DB	0a0H
	DB	07H
	DB	078H
	DB	0a0H
	DB	07H
	DB	078H
	DB	0d0H
	DB	06H
	DB	0e9H
	DB	010H
	DB	07H
	DB	076H
	DB	0a0H
	DB	07H
	DB	071H
	DB	060H
	DB	07H
	DB	07aH
	DB	010H
	DB	07H
	DB	076H
	DB	0d0H
	DB	06H
	DB	0e9H
	DB	030H
	DB	07H
	DB	072H
	DB	0a0H
	DB	07H
	DB	073H
	DB	020H
	DB	07H
	DB	07aH
	DB	030H
	DB	07H
	DB	072H
	DB	0d0H
	DB	06H
	DB	0e9H
	DB	060H
	DB	07H
	DB	074H
	DB	0a0H
	DB	07H
	DB	076H
	DB	040H
	DB	07H
	DB	07aH
	DB	060H
	DB	07H
	DB	074H
	DB	0d0H
	DB	06H
	DB	0e6H
	DB	030H
	DB	07H
	DB	072H
	DB	0a0H
	DB	07H
	DB	073H
	DB	020H
	DB	07H
	DB	07aH
	DB	030H
	DB	07H
	DB	072H
	DB	0d0H
	DB	06H
	DB	0e6H
	DB	060H
	DB	07H
	DB	074H
	DB	0a0H
	DB	07H
	DB	076H
	DB	040H
	DB	07H
	DB	07aH
	DB	060H
	DB	07H
	DB	074H
	DB	0d0H
	DB	06H
	DB	0f6H
	DB	010H
	DB	07H
	DB	076H
	DB	0a0H
	DB	07H
	DB	071H
	DB	060H
	DB	07H
	DB	07aH
	DB	010H
	DB	07H
	DB	076H
	DB	0d0H
	DB	06H
	DB	0f6H
	DB	020H
	DB	07H
	DB	074H
	DB	0a0H
	DB	07H
	DB	073H
	DB	020H
	DB	07H
	DB	07aH
	DB	030H
	DB	07H
	DB	072H
	DB	0d0H
	DB	06H
	DB	0f6H
	DB	030H
	DB	07H
	DB	072H
	DB	0a0H
	DB	07H
	DB	073H
	DB	020H
	DB	07H
	DB	07aH
	DB	030H
	DB	07H
	DB	072H
	DB	0d0H
	DB	06H
	DB	0f6H
	DB	040H
	DB	07H
	DB	078H
	DB	0a0H
	DB	07H
	DB	076H
	DB	040H
	DB	07H
	DB	07aH
	DB	060H
	DB	07H
	DB	074H
	DB	0d0H
	DB	06H
	DB	0f6H
	DB	060H
	DB	07H
	DB	074H
	DB	0a0H
	DB	07H
	DB	076H
	DB	040H
	DB	07H
	DB	07aH
	DB	060H
	DB	07H
	DB	074H
	DB	0d0H
	DB	06H
	DB	0f6H
	DB	090H
	DB	07H
	DB	076H
	DB	0a0H
	DB	07H
	DB	071H
	DB	020H
	DB	07H
	DB	078H
	DB	0a0H
	DB	07H
	DB	071H
	DB	020H
	DB	07H
	DB	078H
	DB	0d0H
	DB	06H
	DB	0f6H
	DB	010H
	DB	07H
	DB	072H
	DB	080H
	DB	07H
	DB	07aH
	DB	010H
	DB	07H
	DB	072H
	DB	080H
	DB	07H
	DB	07aH
	DB	010H
	DB	07H
	DB	072H
	DB	080H
	DB	07H
	DB	06dH
	DB	060H
	DB	0fH
	DB	071H
	DB	090H
	DB	07H
	DB	072H
	DB	0a0H
	DB	07H
	DB	072H
	DB	050H
	DB	07H
	DB	076H
	DB	0a0H
	DB	07H
	DB	072H
	DB	050H
	DB	07H
	DB	076H
	DB	0d0H
	DB	06H
	DB	0f6H
	DB	020H
	DB	07H
	DB	075H
	DB	060H
	DB	07H
	DB	07aH
	DB	020H
	DB	07H
	DB	075H
	DB	060H
	DB	07H
	DB	07aH
	DB	020H
	DB	07H
	DB	075H
	DB	060H
	DB	07H
	DB	06dH
	DB	060H
	DB	0fH
	DB	075H
	DB	010H
	DB	07H
	DB	072H
	DB	0a0H
	DB	07H
	DB	075H
	DB	010H
	DB	07H
	DB	072H
	DB	0a0H
	DB	07H
	DB	075H
	DB	010H
	DB	07H
	DB	072H
	DB	0d0H
	DB	06H
	DB	0f6H
	DB	010H
	DB	07H
	DB	070H
	DB	020H
	DB	07H
	DB	074H
	DB	0a0H
	DB	07H
	DB	071H
	DB	00H
	DB	07H
	DB	072H
	DB	040H
	DB	07H
	DB	07aH
	DB	010H
	DB	07H
	DB	070H
	DB	020H
	DB	07H
	DB	074H
	DB	030H
	DB	044H
	DB	019H
	DB	056H
	DB	021H
	DB	00H
	DB	02H
	DB	00H
	DB	00H
	DB	00H
	DB	060H
	DB	088H
	DB	0a2H
	DB	0b0H
	DB	02H
	DB	00H
	DB	08H
	DB	00H
	DB	00H
	DB	00H
	DB	040H
	DB	016H
	DB	08H
	DB	00H
	DB	00H
	DB	00H
	DB	07H
	DB	00H
	DB	00H
	DB	00H
	DB	032H
	DB	01eH
	DB	098H
	DB	0cH
	DB	019H
	DB	011H
	DB	04cH
	DB	090H
	DB	08cH
	DB	09H
	DB	026H
	DB	047H
	DB	0c6H
	DB	04H
	DB	043H
	DB	082H
	DB	011H
	DB	00H
	DB	08aH
	DB	012H
	DB	028H
	DB	082H
	DB	062H
	DB	018H
	DB	01H
	DB	00H
	DB	00H
	DB	00H
	DB	079H
	DB	018H
	DB	00H
	DB	00H
	DB	0fbH
	DB	00H
	DB	00H
	DB	00H
	DB	01aH
	DB	09H
	DB	04cH
	DB	0d0H
	DB	02H
	DB	087H
	DB	015H
	DB	0d2H
	DB	0c1H
	DB	01dH
	DB	0d6H
	DB	0a1H
	DB	01cH
	DB	0e4H
	DB	01H
	DB	0cH
	DB	05eH
	DB	01H
	DB	01eH
	DB	0e8H
	DB	021H
	DB	01dH
	DB	0deH
	DB	0c1H
	DB	01dH
	DB	0e6H
	DB	061H
	DB	041H
	DB	0d2H
	DB	06H
	DB	0ecH
	DB	0c0H
	DB	0eH
	DB	0e9H
	DB	020H
	DB	0eH
	DB	0e3H
	DB	00H
	DB	0fH
	DB	0edH
	DB	040H
	DB	0fH
	DB	0bH
	DB	012H
	DB	058H
	DB	048H
	DB	085H
	DB	051H
	DB	00H
	DB	03H
	DB	056H
	DB	028H
	DB	07H
	DB	07bH
	DB	028H
	DB	07H
	DB	076H
	DB	058H
	DB	080H
	DB	022H
	DB	0a3H
	DB	0f0H
	DB	0eH
	DB	0e4H
	DB	050H
	DB	0eH
	DB	0f0H
	DB	0c0H
	DB	0eH
	DB	0e1H
	DB	090H
	DB	0fH
	DB	060H
	DB	030H
	DB	0aH
	DB	0efH
	DB	0d0H
	DB	0eH
	DB	0f0H
	DB	050H
	DB	0fH
	DB	0f4H
	DB	050H
	DB	0eH
	DB	0a3H
	DB	00H
	DB	0fH
	DB	0f0H
	DB	00H
	DB	06H
	DB	06dH
	DB	00H
	DB	06H
	DB	0a3H
	DB	050H
	DB	0aH
	DB	060H
	DB	00H
	DB	07H
	DB	06eH
	DB	030H
	DB	07H
	DB	06eH
	DB	020H
	DB	07H
	DB	060H
	DB	040H
	DB	0aH
	DB	0e5H
	DB	060H
	DB	0fH
	DB	0e9H
	DB	030H
	DB	0eH
	DB	0e5H
	DB	00H
	DB	06H
	DB	0a3H
	DB	0f0H
	DB	0eH
	DB	0edH
	DB	00H
	DB	0fH
	DB	0e9H
	DB	0c0H
	DB	0eH
	DB	0e5H
	DB	020H
	DB	0fH
	DB	060H
	DB	0d0H
	DB	06H
	DB	060H
	DB	030H
	DB	0eH
	DB	0ecH
	DB	010H
	DB	0eH
	DB	0eeH
	DB	070H
	DB	0eH
	DB	060H
	DB	060H
	DB	0fH
	DB	0e5H
	DB	020H
	DB	0fH
	DB	0f3H
	DB	090H
	DB	0eH
	DB	0efH
	DB	0e0H
	DB	0eH
	DB	060H
	DB	030H
	DB	07H
	DB	06eH
	DB	090H
	DB	07H
	DB	06eH
	DB	00H
	DB	07H
	DB	060H
	DB	080H
	DB	06H
	DB	0e7H
	DB	090H
	DB	0eH
	DB	0f4H
	DB	00H
	DB	0aH
	DB	0e7H
	DB	090H
	DB	0eH
	DB	0f4H
	DB	0e0H
	DB	06H
	DB	0efH
	DB	060H
	DB	0eH
	DB	0e6H
	DB	090H
	DB	0eH
	DB	0e3H
	DB	050H
	DB	0eH
	DB	06eH
	DB	030H
	DB	0eH
	DB	0efH
	DB	040H
	DB	0eH
	DB	0e5H
	DB	00H
	DB	0fH
	DB	0ecH
	DB	010H
	DB	0eH
	DB	0f9H
	DB	0e0H
	DB	06H
	DB	0e3H
	DB	0f0H
	DB	0eH
	DB	0edH
	DB	0a0H
	DB	07H
	DB	0f3H
	DB	090H
	DB	0fH
	DB	0e3H
	DB	0c0H
	DB	0eH
	DB	06fH
	DB	030H
	DB	0eH
	DB	0ecH
	DB	010H
	DB	0eH
	DB	0eeH
	DB	070H
	DB	0eH
	DB	06eH
	DB	070H
	DB	0eH
	DB	0e9H
	DB	040H
	DB	0fH
	DB	060H
	DB	050H
	DB	0eH
	DB	078H
	DB	080H
	DB	07H
	DB	073H
	DB	060H
	DB	0eH
	DB	079H
	DB	060H
	DB	0eH
	DB	0e6H
	DB	010H
	DB	0eH
	DB	073H
	DB	00H
	DB	07H
	DB	074H
	DB	050H
	DB	07H
	DB	070H
	DB	030H
	DB	0eH
	DB	0e6H
	DB	060H
	DB	07H
	DB	076H
	DB	00H
	DB	07H
	DB	075H
	DB	060H
	DB	0eH
	DB	0e2H
	DB	060H
	DB	0eH
	DB	079H
	DB	020H
	DB	0eH
	DB	070H
	DB	060H
	DB	0eH
	DB	074H
	DB	060H
	DB	0eH
	DB	0e1H
	DB	060H
	DB	07H
	DB	076H
	DB	090H
	DB	07H
	DB	071H
	DB	050H
	DB	07H
	DB	0e5H
	DB	060H
	DB	0eH
	DB	0e1H
	DB	020H
	DB	07H
	DB	0e4H
	DB	090H
	DB	06H
	DB	060H
	DB	080H
	DB	06H
	DB	0e7H
	DB	090H
	DB	0eH
	DB	0f4H
	DB	00H
	DB	0aH
	DB	0e7H
	DB	090H
	DB	0eH
	DB	0f4H
	DB	0e0H
	DB	06H
	DB	0efH
	DB	060H
	DB	0eH
	DB	0e6H
	DB	090H
	DB	0eH
	DB	0e3H
	DB	050H
	DB	0eH
	DB	06eH
	DB	030H
	DB	0eH
	DB	0efH
	DB	040H
	DB	0eH
	DB	0e5H
	DB	00H
	DB	0fH
	DB	0ecH
	DB	010H
	DB	0eH
	DB	0f9H
	DB	0e0H
	DB	06H
	DB	0e3H
	DB	0f0H
	DB	0eH
	DB	0edH
	DB	0a0H
	DB	07H
	DB	0f3H
	DB	090H
	DB	0fH
	DB	0e3H
	DB	0c0H
	DB	0eH
	DB	06fH
	DB	0c0H
	DB	0eH
	DB	0ecH
	DB	060H
	DB	0fH
	DB	0edH
	DB	0e0H
	DB	06H
	DB	0e7H
	DB	090H
	DB	0eH
	DB	0f4H
	DB	00H
	DB	06H
	DB	076H
	DB	050H
	DB	0eH
	DB	0e2H
	DB	030H
	DB	0eH
	DB	076H
	DB	020H
	DB	0eH
	DB	0e4H
	DB	080H
	DB	07H
	DB	0e1H
	DB	060H
	DB	07H
	DB	070H
	DB	00H
	DB	07H
	DB	0e4H
	DB	010H
	DB	07H
	DB	0e2H
	DB	050H
	DB	07H
	DB	075H
	DB	050H
	DB	07H
	DB	0e2H
	DB	00H
	DB	07H
	DB	0e5H
	DB	040H
	DB	0eH
	DB	0e4H
	DB	050H
	DB	0eH
	DB	079H
	DB	00H
	DB	07H
	DB	0e4H
	DB	090H
	DB	07H
	DB	0e5H
	DB	040H
	DB	0eH
	DB	071H
	DB	040H
	DB	07H
	DB	0e4H
	DB	060H
	DB	07H
	DB	076H
	DB	040H
	DB	0eH
	DB	079H
	DB	060H
	DB	07H
	DB	078H
	DB	030H
	DB	07H
	DB	069H
	DB	00H
	DB	06H
	DB	068H
	DB	020H
	DB	0eH
	DB	0e1H
	DB	030H
	DB	0fH
	DB	0e5H
	DB	040H
	DB	0eH
	DB	060H
	DB	0f0H
	DB	0eH
	DB	0eeH
	DB	00H
	DB	06H
	DB	0acH
	DB	0c0H
	DB	0aH
	DB	0b6H
	DB	0d0H
	DB	0aH
	DB	060H
	DB	030H
	DB	07H
	DB	06eH
	DB	090H
	DB	07H
	DB	06eH
	DB	00H
	DB	07H
	DB	0f3H
	DB	060H
	DB	0fH
	DB	0eeH
	DB	090H
	DB	06H
	DB	0bH
	DB	0aaH
	DB	075H
	DB	028H
	DB	07H
	DB	079H
	DB	070H
	DB	087H
	DB	072H
	DB	060H
	DB	087H
	DB	05fH
	DB	08H
	DB	07H
	DB	079H
	DB	038H
	DB	087H
	DB	05fH
	DB	08H
	DB	07H
	DB	072H
	DB	020H
	DB	07H
	DB	079H
	DB	0f8H
	DB	085H
	DB	079H
	DB	080H
	DB	087H
	DB	070H
	DB	018H
	DB	087H
	DB	072H
	DB	058H
	DB	060H
	DB	0adH
	DB	043H
	DB	039H
	DB	0c8H
	DB	083H
	DB	03bH
	DB	094H
	DB	03H
	DB	03bH
	DB	0fcH
	DB	042H
	DB	038H
	DB	0c8H
	DB	0c3H
	DB	039H
	DB	0fcH
	DB	042H
	DB	038H
	DB	08cH
	DB	0c3H
	DB	038H
	DB	094H
	DB	0c3H
	DB	03cH
	DB	0ccH
	DB	0c3H
	DB	02fH
	DB	0c4H
	DB	043H
	DB	03dH
	DB	084H
	DB	03H
	DB	03bH
	DB	02cH
	DB	020H
	DB	0dcH
	DB	0e1H
	DB	01dH
	DB	0dcH
	DB	0a1H
	DB	01cH
	DB	016H
	DB	03cH
	DB	0ebH
	DB	050H
	DB	0eH
	DB	0f2H
	DB	0e0H
	DB	0eH
	DB	0e5H
	DB	0c0H
	DB	0eH
	DB	0bfH
	DB	010H
	DB	0eH
	DB	0f2H
	DB	070H
	DB	0eH
	DB	0bfH
	DB	040H
	DB	0fH
	DB	0f9H
	DB	00H
	DB	0fH
	DB	0e5H
	DB	0b0H
	DB	080H
	DB	048H
	DB	07H
	DB	077H
	DB	0a0H
	DB	07H
	DB	035H
	DB	058H
	DB	080H
	DB	08dH
	DB	03H
	DB	03bH
	DB	0e8H
	DB	081H
	DB	01eH
	DB	0ccH
	DB	043H
	DB	03eH
	DB	08cH
	DB	03H
	DB	03bH
	DB	0e8H
	DB	081H
	DB	01eH
	DB	084H
	DB	0c3H
	DB	038H
	DB	08cH
	DB	043H
	DB	039H
	DB	0ccH
	DB	0c3H
	DB	03cH
	DB	0bcH
	DB	083H
	DB	03cH
	DB	0fcH
	DB	082H
	DB	03cH
	DB	084H
	DB	083H
	DB	03bH
	DB	09cH
	DB	043H
	DB	039H
	DB	02cH
	DB	0a0H
	DB	0d6H
	DB	0a1H
	DB	01cH
	DB	0e4H
	DB	0c1H
	DB	01dH
	DB	0caH
	DB	081H
	DB	01dH
	DB	07eH
	DB	021H
	DB	01cH
	DB	0e4H
	DB	0e1H
	DB	01cH
	DB	07eH
	DB	041H
	DB	01cH
	DB	0c2H
	DB	061H
	DB	01eH
	DB	0caH
	DB	0e1H
	DB	017H
	DB	0e8H
	DB	021H
	DB	01fH
	DB	0e0H
	DB	0a1H
	DB	01cH
	DB	016H
	DB	050H
	DB	0ebH
	DB	050H
	DB	0eH
	DB	0f2H
	DB	0e0H
	DB	0eH
	DB	0e5H
	DB	0c0H
	DB	0eH
	DB	0bfH
	DB	010H
	DB	0eH
	DB	0f2H
	DB	070H
	DB	0eH
	DB	0bfH
	DB	040H
	DB	0fH
	DB	0f9H
	DB	00H
	DB	0fH
	DB	0e5H
	DB	0f0H
	DB	0bH
	DB	0f1H
	DB	050H
	DB	0fH
	DB	0e1H
	DB	0c0H
	DB	0eH
	DB	0bH
	DB	080H
	DB	05H
	DB	0cfH
	DB	03aH
	DB	094H
	DB	083H
	DB	03cH
	DB	0b8H
	DB	043H
	DB	039H
	DB	0b0H
	DB	0c3H
	DB	02fH
	DB	084H
	DB	083H
	DB	03cH
	DB	09cH
	DB	0c3H
	DB	02fH
	DB	0b8H
	DB	043H
	DB	038H
	DB	0b4H
	DB	043H
	DB	039H
	DB	02cH
	DB	028H
	DB	0daH
	DB	0e1H
	DB	017H
	DB	0e0H
	DB	081H
	DB	01eH
	DB	0e4H
	DB	061H
	DB	0c1H
	DB	0d1H
	DB	0eH
	DB	0bfH
	DB	020H
	DB	0fH
	DB	0e1H
	DB	0e0H
	DB	0eH
	DB	0e7H
	DB	050H
	DB	0eH
	DB	043H
	DB	084H
	DB	05H
	DB	01aH
	DB	022H
	DB	02cH
	DB	0d1H
	DB	010H
	DB	061H
	DB	091H
	DB	086H
	DB	08H
	DB	0cbH
	DB	034H
	DB	044H
	DB	058H
	DB	0a8H
	DB	021H
	DB	044H
	DB	030H
	DB	04H
	DB	0c4H
	DB	010H
	DB	060H
	DB	088H
	DB	0b0H
	DB	04H
	DB	043H
	DB	084H
	DB	0e5H
	DB	01aH
	DB	062H
	DB	04H
	DB	0c5H
	DB	02H
	DB	02cH
	DB	0d8H
	DB	010H
	DB	023H
	DB	018H
	DB	016H
	DB	021H
	DB	020H
	DB	086H
	DB	08H
	DB	0cbH
	DB	030H
	DB	0c4H
	DB	058H
	DB	088H
	DB	060H
	DB	08H
	DB	08cH
	DB	021H
	DB	0c6H
	DB	052H
	DB	02cH
	DB	0c6H
	DB	062H
	DB	0cH
	DB	031H
	DB	096H
	DB	063H
	DB	041H
	DB	096H
	DB	064H
	DB	088H
	DB	0b1H
	DB	028H
	DB	0bH
	DB	0b2H
	DB	024H
	DB	043H
	DB	08cH
	DB	065H
	DB	059H
	DB	098H
	DB	085H
	DB	019H
	DB	062H
	DB	02cH
	DB	0cdH
	DB	0e2H
	DB	02cH
	DB	0cfH
	DB	010H
	DB	047H
	DB	09H
	DB	016H
	DB	06eH
	DB	0e9H
	DB	016H
	DB	06fH
	DB	0f9H
	DB	016H
	DB	030H
	DB	058H
	DB	0c2H
	DB	080H
	DB	0d3H
	DB	01bH
	DB	05cH
	DB	099H
	DB	0dbH
	DB	018H
	DB	09bH
	DB	0cbH
	DB	01cH
	DB	05cH
	DB	09aH
	DB	09cH
	DB	08bH
	DB	05dH
	DB	099H
	DB	0dcH
	DB	05cH
	DB	0daH
	DB	09bH
	DB	0dbH
	DB	094H
	DB	0a0H
	DB	0a2H
	DB	0f4H
	DB	06H
	DB	057H
	DB	0e6H
	DB	036H
	DB	0c6H
	DB	0e6H
	DB	0f2H
	DB	036H
	DB	0c6H
	DB	0e6H
	DB	062H
	DB	057H
	DB	026H
	DB	037H
	DB	097H
	DB	0f6H
	DB	0e6H
	DB	036H
	DB	025H
	DB	0a8H
	DB	028H
	DB	06H
	DB	06fH
	DB	070H
	DB	065H
	DB	06eH
	DB	063H
	DB	06cH
	DB	02eH
	DB	075H
	DB	073H
	DB	065H
	DB	064H
	DB	02eH
	DB	06fH
	DB	070H
	DB	074H
	DB	069H
	DB	06fH
	DB	06eH
	DB	061H
	DB	06cH
	DB	02eH
	DB	063H
	DB	06fH
	DB	072H
	DB	065H
	DB	02eH
	DB	066H
	DB	065H
	DB	061H
	DB	074H
	DB	075H
	DB	072H
	DB	065H
	DB	073H
	DB	053H
	DB	02H
	DB	08bH
	DB	0d6H
	DB	01bH
	DB	05cH
	DB	099H
	DB	0dbH
	DB	018H
	DB	09bH
	DB	04bH
	DB	0ddH
	DB	05cH
	DB	019H
	DB	099H
	DB	04bH
	DB	019H
	DB	01eH
	DB	05dH
	DB	099H
	DB	0dbH
	DB	05cH
	DB	0daH
	DB	09bH
	DB	0dbH
	DB	0dcH
	DB	094H
	DB	0c0H
	DB	0e2H
	DB	0f5H
	DB	06H
	DB	057H
	DB	0e6H
	DB	036H
	DB	0c6H
	DB	0e6H
	DB	032H
	DB	0f6H
	DB	0d6H
	DB	06H
	DB	097H
	DB	0c6H
	DB	056H
	DB	026H
	DB	0e7H
	DB	0f2H
	DB	06H
	DB	047H
	DB	097H
	DB	0f6H
	DB	0e6H
	DB	036H
	DB	037H
	DB	025H
	DB	0b0H
	DB	018H
	DB	0b1H
	DB	0b1H
	DB	0d9H
	DB	0b5H
	DB	0b9H
	DB	0b4H
	DB	0bdH
	DB	091H
	DB	0d5H
	DB	0b1H
	DB	095H
	DB	0b9H
	DB	098H
	DB	0b1H
	DB	085H
	DB	09dH
	DB	0cdH
	DB	04dH
	DB	011H
	DB	032H
	DB	08dH
	DB	0aH
	DB	01bH
	DB	09bH
	DB	05dH
	DB	09bH
	DB	04bH
	DB	01aH
	DB	059H
	DB	099H
	DB	01bH
	DB	0ddH
	DB	094H
	DB	060H
	DB	0a3H
	DB	0f3H
	DB	06H
	DB	057H
	DB	0e6H
	DB	036H
	DB	0c6H
	DB	0e6H
	DB	0b2H
	DB	056H
	DB	026H
	DB	0e7H
	DB	056H
	DB	0c6H
	DB	036H
	DB	037H
	DB	025H
	DB	010H
	DB	03H
	DB	00H
	DB	00H
	DB	079H
	DB	018H
	DB	00H
	DB	00H
	DB	08aH
	DB	00H
	DB	00H
	DB	00H
	DB	033H
	DB	08H
	DB	080H
	DB	01cH
	DB	0c4H
	DB	0e1H
	DB	01cH
	DB	066H
	DB	014H
	DB	01H
	DB	03dH
	DB	088H
	DB	043H
	DB	038H
	DB	084H
	DB	0c3H
	DB	08cH
	DB	042H
	DB	080H
	DB	07H
	DB	079H
	DB	078H
	DB	07H
	DB	073H
	DB	098H
	DB	071H
	DB	0cH
	DB	0e6H
	DB	00H
	DB	0fH
	DB	0edH
	DB	010H
	DB	0eH
	DB	0f4H
	DB	080H
	DB	0eH
	DB	033H
	DB	0cH
	DB	042H
	DB	01eH
	DB	0c2H
	DB	0c1H
	DB	01dH
	DB	0ceH
	DB	0a1H
	DB	01cH
	DB	066H
	DB	030H
	DB	05H
	DB	03dH
	DB	088H
	DB	043H
	DB	038H
	DB	084H
	DB	083H
	DB	01bH
	DB	0ccH
	DB	03H
	DB	03dH
	DB	0c8H
	DB	043H
	DB	03dH
	DB	08cH
	DB	03H
	DB	03dH
	DB	0ccH
	DB	078H
	DB	08cH
	DB	074H
	DB	070H
	DB	07H
	DB	07bH
	DB	08H
	DB	07H
	DB	079H
	DB	048H
	DB	087H
	DB	070H
	DB	070H
	DB	07H
	DB	07aH
	DB	070H
	DB	03H
	DB	076H
	DB	078H
	DB	087H
	DB	070H
	DB	020H
	DB	087H
	DB	019H
	DB	0ccH
	DB	011H
	DB	0eH
	DB	0ecH
	DB	090H
	DB	0eH
	DB	0e1H
	DB	030H
	DB	0fH
	DB	06eH
	DB	030H
	DB	0fH
	DB	0e3H
	DB	0f0H
	DB	0eH
	DB	0f0H
	DB	050H
	DB	0eH
	DB	033H
	DB	010H
	DB	0c4H
	DB	01dH
	DB	0deH
	DB	021H
	DB	01cH
	DB	0d8H
	DB	021H
	DB	01dH
	DB	0c2H
	DB	061H
	DB	01eH
	DB	066H
	DB	030H
	DB	089H
	DB	03bH
	DB	0bcH
	DB	083H
	DB	03bH
	DB	0d0H
	DB	043H
	DB	039H
	DB	0b4H
	DB	03H
	DB	03cH
	DB	0bcH
	DB	083H
	DB	03cH
	DB	084H
	DB	03H
	DB	03bH
	DB	0ccH
	DB	0f0H
	DB	014H
	DB	076H
	DB	060H
	DB	07H
	DB	07bH
	DB	068H
	DB	07H
	DB	037H
	DB	068H
	DB	087H
	DB	072H
	DB	068H
	DB	07H
	DB	037H
	DB	080H
	DB	087H
	DB	070H
	DB	090H
	DB	087H
	DB	070H
	DB	060H
	DB	07H
	DB	076H
	DB	028H
	DB	07H
	DB	076H
	DB	0f8H
	DB	05H
	DB	076H
	DB	078H
	DB	087H
	DB	077H
	DB	080H
	DB	087H
	DB	05fH
	DB	08H
	DB	087H
	DB	071H
	DB	018H
	DB	087H
	DB	072H
	DB	098H
	DB	087H
	DB	079H
	DB	098H
	DB	081H
	DB	02cH
	DB	0eeH
	DB	0f0H
	DB	0eH
	DB	0eeH
	DB	0e0H
	DB	0eH
	DB	0f5H
	DB	0c0H
	DB	0eH
	DB	0ecH
	DB	030H
	DB	03H
	DB	062H
	DB	0c8H
	DB	0a1H
	DB	01cH
	DB	0e4H
	DB	0a1H
	DB	01cH
	DB	0ccH
	DB	0a1H
	DB	01cH
	DB	0e4H
	DB	0a1H
	DB	01cH
	DB	0dcH
	DB	061H
	DB	01cH
	DB	0caH
	DB	021H
	DB	01cH
	DB	0c4H
	DB	081H
	DB	01dH
	DB	0caH
	DB	061H
	DB	06H
	DB	0d6H
	DB	090H
	DB	043H
	DB	039H
	DB	0c8H
	DB	043H
	DB	039H
	DB	098H
	DB	043H
	DB	039H
	DB	0c8H
	DB	043H
	DB	039H
	DB	0b8H
	DB	0c3H
	DB	038H
	DB	094H
	DB	043H
	DB	038H
	DB	088H
	DB	03H
	DB	03bH
	DB	094H
	DB	0c3H
	DB	02fH
	DB	0bcH
	DB	083H
	DB	03cH
	DB	0fcH
	DB	082H
	DB	03bH
	DB	0d4H
	DB	03H
	DB	03bH
	DB	0b0H
	DB	0c3H
	DB	0cH
	DB	0c7H
	DB	069H
	DB	087H
	DB	070H
	DB	058H
	DB	087H
	DB	072H
	DB	070H
	DB	083H
	DB	074H
	DB	068H
	DB	07H
	DB	078H
	DB	060H
	DB	087H
	DB	074H
	DB	018H
	DB	087H
	DB	074H
	DB	0a0H
	DB	087H
	DB	019H
	DB	0ceH
	DB	053H
	DB	0fH
	DB	0eeH
	DB	00H
	DB	0fH
	DB	0f2H
	DB	050H
	DB	0eH
	DB	0e4H
	DB	090H
	DB	0eH
	DB	0e3H
	DB	040H
	DB	0fH
	DB	0e1H
	DB	020H
	DB	0eH
	DB	0ecH
	DB	050H
	DB	0eH
	DB	033H
	DB	020H
	DB	028H
	DB	01dH
	DB	0dcH
	DB	0c1H
	DB	01eH
	DB	0c2H
	DB	041H
	DB	01eH
	DB	0d2H
	DB	021H
	DB	01cH
	DB	0dcH
	DB	081H
	DB	01eH
	DB	0dcH
	DB	0e0H
	DB	01cH
	DB	0e4H
	DB	0e1H
	DB	01dH
	DB	0eaH
	DB	01H
	DB	01eH
	DB	066H
	DB	018H
	DB	051H
	DB	038H
	DB	0b0H
	DB	043H
	DB	03aH
	DB	09cH
	DB	083H
	DB	03bH
	DB	0ccH
	DB	050H
	DB	024H
	DB	076H
	DB	060H
	DB	07H
	DB	07bH
	DB	068H
	DB	07H
	DB	037H
	DB	060H
	DB	087H
	DB	077H
	DB	078H
	DB	07H
	DB	078H
	DB	098H
	DB	051H
	DB	04cH
	DB	0f4H
	DB	090H
	DB	0fH
	DB	0f0H
	DB	050H
	DB	0eH
	DB	033H
	DB	02cH
	DB	06aH
	DB	01dH
	DB	0caH
	DB	041H
	DB	01eH
	DB	0dcH
	DB	0a1H
	DB	01cH
	DB	0d8H
	DB	0e1H
	DB	017H
	DB	0c2H
	DB	041H
	DB	01eH
	DB	0ceH
	DB	0e1H
	DB	017H
	DB	0c2H
	DB	081H
	DB	01cH
	DB	0c8H
	DB	041H
	DB	01eH
	DB	07eH
	DB	061H
	DB	01eH
	DB	0e0H
	DB	021H
	DB	01cH
	DB	0c6H
	DB	0a1H
	DB	01cH
	DB	066H
	DB	05cH
	DB	0d5H
	DB	03aH
	DB	094H
	DB	083H
	DB	03cH
	DB	0b8H
	DB	043H
	DB	039H
	DB	0b0H
	DB	0c3H
	DB	02fH
	DB	084H
	DB	083H
	DB	03cH
	DB	09cH
	DB	0c3H
	DB	02fH
	DB	084H
	DB	0c3H
	DB	038H
	DB	08cH
	DB	043H
	DB	039H
	DB	0ccH
	DB	0c3H
	DB	03cH
	DB	0fcH
	DB	042H
	DB	03cH
	DB	0d4H
	DB	043H
	DB	038H
	DB	0b0H
	DB	0c3H
	DB	0cH
	DB	0c8H
	DB	05aH
	DB	087H
	DB	072H
	DB	090H
	DB	07H
	DB	077H
	DB	028H
	DB	07H
	DB	076H
	DB	0f8H
	DB	085H
	DB	070H
	DB	090H
	DB	087H
	DB	073H
	DB	0f8H
	DB	05H
	DB	07aH
	DB	0c8H
	DB	07H
	DB	078H
	DB	028H
	DB	087H
	DB	019H
	DB	0d5H
	DB	0b5H
	DB	0eH
	DB	0e5H
	DB	020H
	DB	0fH
	DB	0eeH
	DB	050H
	DB	0eH
	DB	0ecH
	DB	0f0H
	DB	0bH
	DB	0e1H
	DB	020H
	DB	0fH
	DB	0e7H
	DB	0f0H
	DB	0bH
	DB	0e2H
	DB	010H
	DB	0eH
	DB	0f3H
	DB	050H
	DB	0eH
	DB	0bfH
	DB	040H
	DB	0fH
	DB	0f9H
	DB	00H
	DB	0fH
	DB	0e5H
	DB	030H
	DB	0a3H
	DB	0c2H
	DB	0d6H
	DB	0a1H
	DB	01cH
	DB	0e4H
	DB	0c1H
	DB	01dH
	DB	0caH
	DB	081H
	DB	01dH
	DB	07eH
	DB	021H
	DB	01cH
	DB	0e4H
	DB	0e1H
	DB	01cH
	DB	07eH
	DB	081H
	DB	01eH
	DB	0f2H
	DB	01H
	DB	01eH
	DB	0caH
	DB	0e1H
	DB	017H
	DB	0e2H
	DB	0a1H
	DB	01eH
	DB	0c2H
	DB	081H
	DB	01dH
	DB	066H
	DB	040H
	DB	0d9H
	DB	03aH
	DB	094H
	DB	083H
	DB	03cH
	DB	0b8H
	DB	043H
	DB	039H
	DB	0b0H
	DB	0c3H
	DB	02fH
	DB	084H
	DB	083H
	DB	03cH
	DB	09cH
	DB	0c3H
	DB	02fH
	DB	0b8H
	DB	043H
	DB	038H
	DB	0b4H
	DB	043H
	DB	039H
	DB	00H
	DB	071H
	DB	020H
	DB	00H
	DB	00H
	DB	0aH
	DB	00H
	DB	00H
	DB	00H
	DB	016H
	DB	0a0H
	DB	0b1H
	DB	032H
	DB	057H
	DB	0feH
	DB	0c2H
	DB	02H
	DB	048H
	DB	0d2H
	DB	0fH
	DB	048H
	DB	012H
	DB	062H
	DB	034H
	DB	03fH
	DB	0b1H
	DB	010H
	DB	0cH
	DB	0d1H
	DB	04cH
	DB	092H
	DB	01H
	DB	048H
	DB	0ffH
	DB	05cH
	DB	0dfH
	DB	06H
	DB	031H
	DB	0fdH
	DB	0c6H
	DB	0e2H
	DB	04H
	DB	0c0H
	DB	0f2H
	DB	023H
	DB	043H
	DB	02H
	DB	00H
	DB	00H
	DB	061H
	DB	020H
	DB	00H
	DB	00H
	DB	03aH
	DB	00H
	DB	00H
	DB	00H
	DB	013H
	DB	04H
	DB	041H
	DB	02cH
	DB	010H
	DB	00H
	DB	00H
	DB	00H
	DB	02H
	DB	00H
	DB	00H
	DB	00H
	DB	04H
	DB	05H
	DB	054H
	DB	02H
	DB	045H
	DB	00H
	DB	00H
	DB	00H
	DB	0f1H
	DB	030H
	DB	00H
	DB	00H
	DB	022H
	DB	00H
	DB	00H
	DB	00H
	DB	0bH
	DB	090H
	DB	076H
	DB	0f8H
	DB	085H
	DB	077H
	DB	030H
	DB	07H
	DB	073H
	DB	098H
	DB	087H
	DB	072H
	DB	0a0H
	DB	087H
	DB	05H
	DB	043H
	DB	03aH
	DB	0b8H
	DB	03H
	DB	03dH
	DB	02cH
	DB	078H
	DB	0deH
	DB	0a1H
	DB	01dH
	DB	0dcH
	DB	021H
	DB	01dH
	DB	0e0H
	DB	0e1H
	DB	01dH
	DB	0e8H
	DB	0a1H
	DB	01cH
	DB	0dcH
	DB	081H
	DB	01eH
	DB	0c0H
	DB	060H
	DB	01cH
	DB	0d0H
	DB	021H
	DB	01cH
	DB	0e4H
	DB	061H
	DB	0c1H
	DB	033H
	DB	0bH
	DB	0e9H
	DB	0d0H
	DB	0eH
	DB	0f0H
	DB	0c0H
	DB	0eH
	DB	0e5H
	DB	00H
	DB	06H
	DB	0a3H
	DB	0b0H
	DB	06H
	DB	06bH
	DB	00H
	DB	06H
	DB	0b4H
	DB	020H
	DB	0aH
	DB	0a1H
	DB	010H
	DB	0aH
	DB	043H
	DB	084H
	DB	0e5H
	DB	0cH
	DB	086H
	DB	018H
	DB	0c1H
	DB	010H
	DB	018H
	DB	081H
	DB	031H
	DB	0c4H
	DB	058H
	DB	08cH
	DB	0c5H
	DB	058H
	DB	08cH
	DB	021H
	DB	0c6H
	DB	082H
	DB	02cH
	DB	0c9H
	DB	092H
	DB	0cH
	DB	031H
	DB	016H
	DB	066H
	DB	061H
	DB	016H
	DB	066H
	DB	088H
	DB	0b1H
	DB	038H
	DB	0cbH
	DB	018H
	DB	02cH
	DB	0cfH
	DB	010H
	DB	061H
	DB	031H
	DB	083H
	DB	021H
	DB	0c6H
	DB	052H
	DB	06H
	DB	04bH
	DB	01bH
	DB	00H
	DB	0c2H
	DB	010H
	DB	063H
	DB	021H
	DB	083H
	DB	0c5H
	DB	0dH
	DB	00H
	DB	061H
	DB	088H
	DB	0b1H
	DB	0bcH
	DB	0c1H
	DB	0f2H
	DB	06H
	DB	080H
	DB	00H
	DB	00H
	DB	00H
	DB	0e3H
	DB	011H
	DB	088H
	DB	060H
	DB	028H
	DB	0c4H
	DB	08cH
	DB	0f1H
	DB	08H
	DB	044H
	DB	030H
	DB	016H
	DB	072H
	DB	0c6H
	DB	088H
	DB	01H
	DB	031H
	DB	0dcH
	DB	04H
	DB	060H
	DB	01cH
	DB	014H
	DB	070H
	DB	0dH
	DB	0c4H
	DB	03dH
	DB	020H
	DB	026H
	DB	025H
	DB	017H
	DB	028H
	DB	0aH
	DB	092H
	DB	0aaH
	DB	026H
	DB	031H
	DB	02bH
	DB	0c9H
	DB	0c0H
	DB	078H
	DB	0c2H
	DB	071H
	DB	0dH
	DB	046H
	DB	060H
	DB	0d1H
	DB	00H
	DB	060H
	DB	040H
	DB	0cH
	DB	00H
	DB	00H
	DB	02H
	DB	00H
	DB	00H
	DB	00H
	DB	05bH
	DB	086H
	DB	026H
	DB	080H
	DB	03H
	DB	00H
	DB	00H
	DB	00H
	DB	00H
	DB	00H
	DB	00H
	DB	00H
	DB	00H
	DB	00H
	DB	00H
	DB	00H
?name@?$kernel_info@Vassign_elements@@@?A0xcf7f8366@detail@sycl@cl@@2PEBDEB DQ FLAT:$SG49543 ; cl::sycl::detail::`anonymous namespace'::kernel_info<assign_elements>::name
_DATA	ENDS
PUBLIC	?__empty_global_delete@@YAXPEAX@Z		; __empty_global_delete
PUBLIC	?__empty_global_delete@@YAXPEAX_K@Z		; __empty_global_delete
PUBLIC	??1exception_ptr@std@@QEAA@XZ			; std::exception_ptr::~exception_ptr
PUBLIC	??0exception_ptr@std@@QEAA@AEBV01@@Z		; std::exception_ptr::exception_ptr
PUBLIC	?_RethrowException@exception_ptr@std@@QEBAXXZ	; std::exception_ptr::_RethrowException
PUBLIC	?rethrow_exception@std@@YAXVexception_ptr@1@@Z	; std::rethrow_exception
PUBLIC	??2@YAPEAX_KPEAX@Z				; operator new
PUBLIC	??3@YAXPEAX0@Z					; operator delete
PUBLIC	?compare@?$char_traits@D@std@@SAHPEBD0_K@Z	; std::char_traits<char>::compare
PUBLIC	?length@?$char_traits@D@std@@SA_KPEBD@Z		; std::char_traits<char>::length
PUBLIC	?copy@?$char_traits@D@std@@SAPEADPEADPEBD_K@Z	; std::char_traits<char>::copy
PUBLIC	?move@?$char_traits@D@std@@SAPEADPEADPEBD_K@Z	; std::char_traits<char>::move
PUBLIC	?assign@?$char_traits@D@std@@SAXAEADAEBD@Z	; std::char_traits<char>::assign
PUBLIC	?eq_int_type@?$char_traits@D@std@@SA_NAEBH0@Z	; std::char_traits<char>::eq_int_type
PUBLIC	?eof@?$char_traits@D@std@@SAHXZ			; std::char_traits<char>::eof
PUBLIC	??0_Container_proxy@std@@QEAA@XZ		; std::_Container_proxy::_Container_proxy
PUBLIC	??0_Container_base12@std@@QEAA@XZ		; std::_Container_base12::_Container_base12
PUBLIC	??1_Container_base12@std@@QEAA@XZ		; std::_Container_base12::~_Container_base12
PUBLIC	?_Orphan_all@_Container_base12@std@@QEAAXXZ	; std::_Container_base12::_Orphan_all
PUBLIC	??1_Iterator_base12@std@@QEAA@XZ		; std::_Iterator_base12::~_Iterator_base12
PUBLIC	?_Getcont@_Iterator_base12@std@@QEBAPEBU_Container_base12@2@XZ ; std::_Iterator_base12::_Getcont
PUBLIC	?_Orphan_me@_Iterator_base12@std@@QEAAXXZ	; std::_Iterator_base12::_Orphan_me
PUBLIC	?_Allocate@std@@YAPEAX_K0_N@Z			; std::_Allocate
PUBLIC	?_Deallocate@std@@YAXPEAX_K1@Z			; std::_Deallocate
PUBLIC	?_Init_atomic_counter@std@@YAXAEAKK@Z		; std::_Init_atomic_counter
PUBLIC	??8type_info@@QEBA_NAEBV0@@Z			; type_info::operator==
PUBLIC	??0?$allocator@D@std@@QEAA@XZ			; std::allocator<char>::allocator<char>
PUBLIC	??0?$allocator@D@std@@QEAA@AEBV01@@Z		; std::allocator<char>::allocator<char>
PUBLIC	?deallocate@?$allocator@D@std@@QEAAXPEAD_K@Z	; std::allocator<char>::deallocate
PUBLIC	?allocate@?$allocator@D@std@@QEAAPEAD_K@Z	; std::allocator<char>::allocate
PUBLIC	?max_size@?$allocator@D@std@@QEBA_KXZ		; std::allocator<char>::max_size
PUBLIC	?max_size@?$allocator_traits@V?$allocator@D@std@@@std@@SA_KAEBV?$allocator@D@2@@Z ; std::allocator_traits<std::allocator<char> >::max_size
PUBLIC	?select_on_container_copy_construction@?$allocator_traits@V?$allocator@D@std@@@std@@SA?AV?$allocator@D@2@AEBV32@@Z ; std::allocator_traits<std::allocator<char> >::select_on_container_copy_construction
PUBLIC	?select_on_container_copy_construction@?$_Wrap_alloc@V?$allocator@D@std@@@std@@QEBA?AU12@U_Nil@2@@Z ; std::_Wrap_alloc<std::allocator<char> >::select_on_container_copy_construction
PUBLIC	??0?$_Wrap_alloc@V?$allocator@D@std@@@std@@QEAA@XZ ; std::_Wrap_alloc<std::allocator<char> >::_Wrap_alloc<std::allocator<char> >
PUBLIC	??0?$_Wrap_alloc@V?$allocator@D@std@@@std@@QEAA@$$QEAU01@@Z ; std::_Wrap_alloc<std::allocator<char> >::_Wrap_alloc<std::allocator<char> >
PUBLIC	?allocate@?$_Wrap_alloc@V?$allocator@D@std@@@std@@QEAAPEAD_K@Z ; std::_Wrap_alloc<std::allocator<char> >::allocate
PUBLIC	?deallocate@?$_Wrap_alloc@V?$allocator@D@std@@@std@@QEAAXPEAD_K@Z ; std::_Wrap_alloc<std::allocator<char> >::deallocate
PUBLIC	?max_size@?$_Wrap_alloc@V?$allocator@D@std@@@std@@QEBA_KU_Nil@2@@Z ; std::_Wrap_alloc<std::allocator<char> >::max_size
PUBLIC	??0?$_String_val@U?$_Simple_types@D@std@@@std@@QEAA@XZ ; std::_String_val<std::_Simple_types<char> >::_String_val<std::_Simple_types<char> >
PUBLIC	?_Myptr@?$_String_val@U?$_Simple_types@D@std@@@std@@QEAAPEADXZ ; std::_String_val<std::_Simple_types<char> >::_Myptr
PUBLIC	?_Myptr@?$_String_val@U?$_Simple_types@D@std@@@std@@QEBAPEBDXZ ; std::_String_val<std::_Simple_types<char> >::_Myptr
PUBLIC	??0_Bxty@?$_String_val@U?$_Simple_types@D@std@@@std@@QEAA@XZ ; std::_String_val<std::_Simple_types<char> >::_Bxty::_Bxty
PUBLIC	??1_Bxty@?$_String_val@U?$_Simple_types@D@std@@@std@@QEAA@XZ ; std::_String_val<std::_Simple_types<char> >::_Bxty::~_Bxty
PUBLIC	??1?$_String_val@U?$_Simple_types@D@std@@@std@@QEAA@XZ ; std::_String_val<std::_Simple_types<char> >::~_String_val<std::_Simple_types<char> >
PUBLIC	?_Myptr@?$_String_alloc@U?$_String_base_types@DV?$allocator@D@std@@@std@@@std@@QEAAPEADXZ ; std::_String_alloc<std::_String_base_types<char,std::allocator<char> > >::_Myptr
PUBLIC	?_Myptr@?$_String_alloc@U?$_String_base_types@DV?$allocator@D@std@@@std@@@std@@QEBAPEBDXZ ; std::_String_alloc<std::_String_base_types<char,std::allocator<char> > >::_Myptr
PUBLIC	??0?$_String_alloc@U?$_String_base_types@DV?$allocator@D@std@@@std@@@std@@QEAA@XZ ; std::_String_alloc<std::_String_base_types<char,std::allocator<char> > >::_String_alloc<std::_String_base_types<char,std::allocator<char> > >
PUBLIC	??1?$_String_alloc@U?$_String_base_types@DV?$allocator@D@std@@@std@@@std@@QEAA@XZ ; std::_String_alloc<std::_String_base_types<char,std::allocator<char> > >::~_String_alloc<std::_String_base_types<char,std::allocator<char> > >
PUBLIC	?_Alloc_proxy@?$_String_alloc@U?$_String_base_types@DV?$allocator@D@std@@@std@@@std@@QEAAXXZ ; std::_String_alloc<std::_String_base_types<char,std::allocator<char> > >::_Alloc_proxy
PUBLIC	?_Free_proxy@?$_String_alloc@U?$_String_base_types@DV?$allocator@D@std@@@std@@@std@@QEAAXXZ ; std::_String_alloc<std::_String_base_types<char,std::allocator<char> > >::_Free_proxy
PUBLIC	?_Myproxy@?$_String_alloc@U?$_String_base_types@DV?$allocator@D@std@@@std@@@std@@QEAAAEAPEAU_Container_proxy@2@XZ ; std::_String_alloc<std::_String_base_types<char,std::allocator<char> > >::_Myproxy
PUBLIC	?_Orphan_all@?$_String_alloc@U?$_String_base_types@DV?$allocator@D@std@@@std@@@std@@QEAAXXZ ; std::_String_alloc<std::_String_base_types<char,std::allocator<char> > >::_Orphan_all
PUBLIC	?_Getal@?$_String_alloc@U?$_String_base_types@DV?$allocator@D@std@@@std@@@std@@QEAAAEAU?$_Wrap_alloc@V?$allocator@D@std@@@2@XZ ; std::_String_alloc<std::_String_base_types<char,std::allocator<char> > >::_Getal
PUBLIC	?_Getal@?$_String_alloc@U?$_String_base_types@DV?$allocator@D@std@@@std@@@std@@QEBAAEBU?$_Wrap_alloc@V?$allocator@D@std@@@2@XZ ; std::_String_alloc<std::_String_base_types<char,std::allocator<char> > >::_Getal
PUBLIC	?_Get_data@?$_String_alloc@U?$_String_base_types@DV?$allocator@D@std@@@std@@@std@@QEAAAEAV?$_String_val@U?$_Simple_types@D@std@@@2@XZ ; std::_String_alloc<std::_String_base_types<char,std::allocator<char> > >::_Get_data
PUBLIC	?_Get_data@?$_String_alloc@U?$_String_base_types@DV?$allocator@D@std@@@std@@@std@@QEBAAEBV?$_String_val@U?$_Simple_types@D@std@@@2@XZ ; std::_String_alloc<std::_String_base_types<char,std::allocator<char> > >::_Get_data
PUBLIC	?_Bx@?$_String_alloc@U?$_String_base_types@DV?$allocator@D@std@@@std@@@std@@QEAAAEAT_Bxty@?$_String_val@U?$_Simple_types@D@std@@@2@XZ ; std::_String_alloc<std::_String_base_types<char,std::allocator<char> > >::_Bx
PUBLIC	?_Mysize@?$_String_alloc@U?$_String_base_types@DV?$allocator@D@std@@@std@@@std@@QEAAAEA_KXZ ; std::_String_alloc<std::_String_base_types<char,std::allocator<char> > >::_Mysize
PUBLIC	?_Mysize@?$_String_alloc@U?$_String_base_types@DV?$allocator@D@std@@@std@@@std@@QEBAAEB_KXZ ; std::_String_alloc<std::_String_base_types<char,std::allocator<char> > >::_Mysize
PUBLIC	?_Myres@?$_String_alloc@U?$_String_base_types@DV?$allocator@D@std@@@std@@@std@@QEAAAEA_KXZ ; std::_String_alloc<std::_String_base_types<char,std::allocator<char> > >::_Myres
PUBLIC	?_Get_first@?$_Compressed_pair@U?$_Wrap_alloc@V?$allocator@D@std@@@std@@V?$_String_val@U?$_Simple_types@D@std@@@2@$00@std@@QEAAAEAU?$_Wrap_alloc@V?$allocator@D@std@@@2@XZ ; std::_Compressed_pair<std::_Wrap_alloc<std::allocator<char> >,std::_String_val<std::_Simple_types<char> >,1>::_Get_first
PUBLIC	?_Get_first@?$_Compressed_pair@U?$_Wrap_alloc@V?$allocator@D@std@@@std@@V?$_String_val@U?$_Simple_types@D@std@@@2@$00@std@@QEBAAEBU?$_Wrap_alloc@V?$allocator@D@std@@@2@XZ ; std::_Compressed_pair<std::_Wrap_alloc<std::allocator<char> >,std::_String_val<std::_Simple_types<char> >,1>::_Get_first
PUBLIC	?_Get_second@?$_Compressed_pair@U?$_Wrap_alloc@V?$allocator@D@std@@@std@@V?$_String_val@U?$_Simple_types@D@std@@@2@$00@std@@QEAAAEAV?$_String_val@U?$_Simple_types@D@std@@@2@XZ ; std::_Compressed_pair<std::_Wrap_alloc<std::allocator<char> >,std::_String_val<std::_Simple_types<char> >,1>::_Get_second
PUBLIC	?_Get_second@?$_Compressed_pair@U?$_Wrap_alloc@V?$allocator@D@std@@@std@@V?$_String_val@U?$_Simple_types@D@std@@@2@$00@std@@QEBAAEBV?$_String_val@U?$_Simple_types@D@std@@@2@XZ ; std::_Compressed_pair<std::_Wrap_alloc<std::allocator<char> >,std::_String_val<std::_Simple_types<char> >,1>::_Get_second
PUBLIC	??1?$_Compressed_pair@U?$_Wrap_alloc@V?$allocator@D@std@@@std@@V?$_String_val@U?$_Simple_types@D@std@@@2@$00@std@@QEAA@XZ ; std::_Compressed_pair<std::_Wrap_alloc<std::allocator<char> >,std::_String_val<std::_Simple_types<char> >,1>::~_Compressed_pair<std::_Wrap_alloc<std::allocator<char> >,std::_String_val<std::_Simple_types<char> >,1>
PUBLIC	??0?$basic_string@DU?$char_traits@D@std@@V?$allocator@D@2@@std@@QEAA@AEBV01@@Z ; std::basic_string<char,std::char_traits<char>,std::allocator<char> >::basic_string<char,std::char_traits<char>,std::allocator<char> >
PUBLIC	??0?$basic_string@DU?$char_traits@D@std@@V?$allocator@D@2@@std@@QEAA@PEBD@Z ; std::basic_string<char,std::char_traits<char>,std::allocator<char> >::basic_string<char,std::char_traits<char>,std::allocator<char> >
PUBLIC	??1?$basic_string@DU?$char_traits@D@std@@V?$allocator@D@2@@std@@QEAA@XZ ; std::basic_string<char,std::char_traits<char>,std::allocator<char> >::~basic_string<char,std::char_traits<char>,std::allocator<char> >
PUBLIC	?assign@?$basic_string@DU?$char_traits@D@std@@V?$allocator@D@2@@std@@QEAAAEAV12@AEBV12@_K1@Z ; std::basic_string<char,std::char_traits<char>,std::allocator<char> >::assign
PUBLIC	?assign@?$basic_string@DU?$char_traits@D@std@@V?$allocator@D@2@@std@@QEAAAEAV12@PEBD_K@Z ; std::basic_string<char,std::char_traits<char>,std::allocator<char> >::assign
PUBLIC	?assign@?$basic_string@DU?$char_traits@D@std@@V?$allocator@D@2@@std@@QEAAAEAV12@PEBD@Z ; std::basic_string<char,std::char_traits<char>,std::allocator<char> >::assign
PUBLIC	?erase@?$basic_string@DU?$char_traits@D@std@@V?$allocator@D@2@@std@@QEAAAEAV12@_K@Z ; std::basic_string<char,std::char_traits<char>,std::allocator<char> >::erase
PUBLIC	?erase@?$basic_string@DU?$char_traits@D@std@@V?$allocator@D@2@@std@@QEAAAEAV12@_K0@Z ; std::basic_string<char,std::char_traits<char>,std::allocator<char> >::erase
PUBLIC	?c_str@?$basic_string@DU?$char_traits@D@std@@V?$allocator@D@2@@std@@QEBAPEBDXZ ; std::basic_string<char,std::char_traits<char>,std::allocator<char> >::c_str
PUBLIC	?max_size@?$basic_string@DU?$char_traits@D@std@@V?$allocator@D@2@@std@@QEBA_KXZ ; std::basic_string<char,std::char_traits<char>,std::allocator<char> >::max_size
PUBLIC	?empty@?$basic_string@DU?$char_traits@D@std@@V?$allocator@D@2@@std@@QEBA_NXZ ; std::basic_string<char,std::char_traits<char>,std::allocator<char> >::empty
PUBLIC	?_Traits_compare@?$basic_string@DU?$char_traits@D@std@@V?$allocator@D@2@@std@@SAHQEBD_K01@Z ; std::basic_string<char,std::char_traits<char>,std::allocator<char> >::_Traits_compare
PUBLIC	?_Clamp_suffix_size@?$basic_string@DU?$char_traits@D@std@@V?$allocator@D@2@@std@@QEBA_K_K0@Z ; std::basic_string<char,std::char_traits<char>,std::allocator<char> >::_Clamp_suffix_size
PUBLIC	?compare@?$basic_string@DU?$char_traits@D@std@@V?$allocator@D@2@@std@@QEBAHPEBD@Z ; std::basic_string<char,std::char_traits<char>,std::allocator<char> >::compare
PUBLIC	?_Copy@?$basic_string@DU?$char_traits@D@std@@V?$allocator@D@2@@std@@QEAAX_K0@Z ; std::basic_string<char,std::char_traits<char>,std::allocator<char> >::_Copy
PUBLIC	?_Eos@?$basic_string@DU?$char_traits@D@std@@V?$allocator@D@2@@std@@QEAAX_K@Z ; std::basic_string<char,std::char_traits<char>,std::allocator<char> >::_Eos
PUBLIC	?_Grow@?$basic_string@DU?$char_traits@D@std@@V?$allocator@D@2@@std@@QEAA_N_K_N@Z ; std::basic_string<char,std::char_traits<char>,std::allocator<char> >::_Grow
PUBLIC	?_Inside@?$basic_string@DU?$char_traits@D@std@@V?$allocator@D@2@@std@@QEAA_NPEBD@Z ; std::basic_string<char,std::char_traits<char>,std::allocator<char> >::_Inside
PUBLIC	?_Tidy@?$basic_string@DU?$char_traits@D@std@@V?$allocator@D@2@@std@@QEAAX_N_K@Z ; std::basic_string<char,std::char_traits<char>,std::allocator<char> >::_Tidy
PUBLIC	?_Xlen@?$basic_string@DU?$char_traits@D@std@@V?$allocator@D@2@@std@@QEBAXXZ ; std::basic_string<char,std::char_traits<char>,std::allocator<char> >::_Xlen
PUBLIC	?_Check_offset@?$basic_string@DU?$char_traits@D@std@@V?$allocator@D@2@@std@@QEBAX_K@Z ; std::basic_string<char,std::char_traits<char>,std::allocator<char> >::_Check_offset
PUBLIC	?_Xran@?$basic_string@DU?$char_traits@D@std@@V?$allocator@D@2@@std@@QEBAXXZ ; std::basic_string<char,std::char_traits<char>,std::allocator<char> >::_Xran
PUBLIC	??0_Ref_count_base@std@@IEAA@XZ			; std::_Ref_count_base::_Ref_count_base
PUBLIC	??1_Ref_count_base@std@@UEAA@XZ			; std::_Ref_count_base::~_Ref_count_base
PUBLIC	?_Decref@_Ref_count_base@std@@QEAAXXZ		; std::_Ref_count_base::_Decref
PUBLIC	?_Decwref@_Ref_count_base@std@@QEAAXXZ		; std::_Ref_count_base::_Decwref
PUBLIC	?_Get_deleter@_Ref_count_base@std@@UEBAPEAXAEBVtype_info@@@Z ; std::_Ref_count_base::_Get_deleter
PUBLIC	??_G_Ref_count_base@std@@UEAAPEAXI@Z		; std::_Ref_count_base::`scalar deleting destructor'
PUBLIC	?_Enable_shared@std@@YAXPEDX0@Z			; std::_Enable_shared
PUBLIC	??RNullDeleter@detail@sycl@cl@@QEAAXPEAX@Z	; cl::sycl::detail::NullDeleter::operator()
PUBLIC	?construct_linear_row_major_index@detail@sycl@cl@@YA_K_K00000@Z ; cl::sycl::detail::construct_linear_row_major_index
PUBLIC	?_Get@?$_Ptr_base@Vcontext@detail@sycl@cl@@@std@@QEBAPEAVcontext@detail@sycl@cl@@XZ ; std::_Ptr_base<cl::sycl::detail::context>::_Get
PUBLIC	?_Decref@?$_Ptr_base@Vcontext@detail@sycl@cl@@@std@@QEAAXXZ ; std::_Ptr_base<cl::sycl::detail::context>::_Decref
PUBLIC	??1?$shared_ptr@Vcontext@detail@sycl@cl@@@std@@QEAA@XZ ; std::shared_ptr<cl::sycl::detail::context>::~shared_ptr<cl::sycl::detail::context>
PUBLIC	?get@?$shared_ptr@Vcontext@detail@sycl@cl@@@std@@QEBAPEAVcontext@detail@sycl@cl@@XZ ; std::shared_ptr<cl::sycl::detail::context>::get
PUBLIC	?_Decref@?$_Ptr_base@Vevent@detail@sycl@cl@@@std@@QEAAXXZ ; std::_Ptr_base<cl::sycl::detail::event>::_Decref
PUBLIC	??1?$shared_ptr@Vevent@detail@sycl@cl@@@std@@QEAA@XZ ; std::shared_ptr<cl::sycl::detail::event>::~shared_ptr<cl::sycl::detail::event>
PUBLIC	??0base_allocator@detail@sycl@cl@@QEAA@_N@Z	; cl::sycl::detail::base_allocator::base_allocator
PUBLIC	??1base_allocator@detail@sycl@cl@@UEAA@XZ	; cl::sycl::detail::base_allocator::~base_allocator
PUBLIC	?is_map_allocator@base_allocator@detail@sycl@cl@@UEBA_NXZ ; cl::sycl::detail::base_allocator::is_map_allocator
PUBLIC	??_Gbase_allocator@detail@sycl@cl@@UEAAPEAXI@Z	; cl::sycl::detail::base_allocator::`scalar deleting destructor'
PUBLIC	??R?$default_delete@Vbase_allocator@detail@sycl@cl@@@std@@QEBAXPEAVbase_allocator@detail@sycl@cl@@@Z ; std::default_delete<cl::sycl::detail::base_allocator>::operator()
PUBLIC	?get_deleter@?$_Unique_ptr_base@Vbase_allocator@detail@sycl@cl@@U?$default_delete@Vbase_allocator@detail@sycl@cl@@@std@@@std@@QEAAAEAU?$default_delete@Vbase_allocator@detail@sycl@cl@@@2@XZ ; std::_Unique_ptr_base<cl::sycl::detail::base_allocator,std::default_delete<cl::sycl::detail::base_allocator> >::get_deleter
PUBLIC	?_Myptr@?$_Unique_ptr_base@Vbase_allocator@detail@sycl@cl@@U?$default_delete@Vbase_allocator@detail@sycl@cl@@@std@@@std@@QEBAAEBQEAVbase_allocator@detail@sycl@cl@@XZ ; std::_Unique_ptr_base<cl::sycl::detail::base_allocator,std::default_delete<cl::sycl::detail::base_allocator> >::_Myptr
PUBLIC	?_Get_first@?$_Compressed_pair@U?$default_delete@Vbase_allocator@detail@sycl@cl@@@std@@PEAVbase_allocator@detail@sycl@cl@@$00@std@@QEAAAEAU?$default_delete@Vbase_allocator@detail@sycl@cl@@@2@XZ ; std::_Compressed_pair<std::default_delete<cl::sycl::detail::base_allocator>,cl::sycl::detail::base_allocator * __ptr64,1>::_Get_first
PUBLIC	?_Get_second@?$_Compressed_pair@U?$default_delete@Vbase_allocator@detail@sycl@cl@@@std@@PEAVbase_allocator@detail@sycl@cl@@$00@std@@QEBAAEBQEAVbase_allocator@detail@sycl@cl@@XZ ; std::_Compressed_pair<std::default_delete<cl::sycl::detail::base_allocator>,cl::sycl::detail::base_allocator * __ptr64,1>::_Get_second
PUBLIC	??1?$unique_ptr@Vbase_allocator@detail@sycl@cl@@U?$default_delete@Vbase_allocator@detail@sycl@cl@@@std@@@std@@QEAA@XZ ; std::unique_ptr<cl::sycl::detail::base_allocator,std::default_delete<cl::sycl::detail::base_allocator> >::~unique_ptr<cl::sycl::detail::base_allocator,std::default_delete<cl::sycl::detail::base_allocator> >
PUBLIC	?get@?$unique_ptr@Vbase_allocator@detail@sycl@cl@@U?$default_delete@Vbase_allocator@detail@sycl@cl@@@std@@@std@@QEBAPEAVbase_allocator@detail@sycl@cl@@XZ ; std::unique_ptr<cl::sycl::detail::base_allocator,std::default_delete<cl::sycl::detail::base_allocator> >::get
PUBLIC	??Aindex_array@detail@sycl@cl@@QEAAAEA_KI@Z	; cl::sycl::detail::index_array::operator[]
PUBLIC	??Aindex_array@detail@sycl@cl@@QEBA_KI@Z	; cl::sycl::detail::index_array::operator[]
PUBLIC	??0index_array_base@detail@sycl@cl@@QEAA@_K00@Z	; cl::sycl::detail::index_array_base::index_array_base
PUBLIC	??Aindex_array_base@detail@sycl@cl@@QEAAAEA_KI@Z ; cl::sycl::detail::index_array_base::operator[]
PUBLIC	??Bindex_array_base@detail@sycl@cl@@QEBA?AVindex_array@123@XZ ; cl::sycl::detail::index_array_base::operator cl::sycl::detail::index_array
PUBLIC	??0nd_range_base@detail@sycl@cl@@QEAA@Vindex_array@123@00@Z ; cl::sycl::detail::nd_range_base::nd_range_base
PUBLIC	??0?$index_array_operators@$00Vrange@sycl@cl@@@detail@sycl@cl@@IEAA@_K00@Z ; cl::sycl::detail::index_array_operators<1,cl::sycl::range>::index_array_operators<1,cl::sycl::range>
PUBLIC	??1?$index_array_operators@$00Vrange@sycl@cl@@@detail@sycl@cl@@QEAA@XZ ; cl::sycl::detail::index_array_operators<1,cl::sycl::range>::~index_array_operators<1,cl::sycl::range>
PUBLIC	??0?$range@$00@sycl@cl@@QEAA@_K@Z		; cl::sycl::range<1>::range<1>
PUBLIC	??0?$range@$00@sycl@cl@@QEAA@AEBVindex_array@detail@12@@Z ; cl::sycl::range<1>::range<1>
PUBLIC	??1?$range@$00@sycl@cl@@QEAA@XZ			; cl::sycl::range<1>::~range<1>
PUBLIC	??0?$index_array_operators@$00Vid@sycl@cl@@@detail@sycl@cl@@IEAA@_K00@Z ; cl::sycl::detail::index_array_operators<1,cl::sycl::id>::index_array_operators<1,cl::sycl::id>
PUBLIC	??1?$index_array_operators@$00Vid@sycl@cl@@@detail@sycl@cl@@QEAA@XZ ; cl::sycl::detail::index_array_operators<1,cl::sycl::id>::~index_array_operators<1,cl::sycl::id>
PUBLIC	??0?$id@$00@sycl@cl@@QEAA@XZ			; cl::sycl::id<1>::id<1>
PUBLIC	??0?$id@$00@sycl@cl@@QEAA@_K@Z			; cl::sycl::id<1>::id<1>
PUBLIC	??0?$id@$00@sycl@cl@@QEAA@AEBVindex_array@detail@12@@Z ; cl::sycl::id<1>::id<1>
PUBLIC	??1?$id@$00@sycl@cl@@QEAA@XZ			; cl::sycl::id<1>::~id<1>
PUBLIC	??0?$_Func_class@XVexception_list@sycl@cl@@@std@@QEAA@XZ ; std::_Func_class<void,cl::sycl::exception_list>::_Func_class<void,cl::sycl::exception_list>
PUBLIC	??1?$_Func_class@XVexception_list@sycl@cl@@@std@@QEAA@XZ ; std::_Func_class<void,cl::sycl::exception_list>::~_Func_class<void,cl::sycl::exception_list>
PUBLIC	?_Empty@?$_Func_class@XVexception_list@sycl@cl@@@std@@IEBA_NXZ ; std::_Func_class<void,cl::sycl::exception_list>::_Empty
PUBLIC	?_Tidy@?$_Func_class@XVexception_list@sycl@cl@@@std@@IEAAXXZ ; std::_Func_class<void,cl::sycl::exception_list>::_Tidy
PUBLIC	?_Local@?$_Func_class@XVexception_list@sycl@cl@@@std@@AEBA_NXZ ; std::_Func_class<void,cl::sycl::exception_list>::_Local
PUBLIC	?_Getimpl@?$_Func_class@XVexception_list@sycl@cl@@@std@@AEBAPEAV?$_Func_base@XVexception_list@sycl@cl@@@2@XZ ; std::_Func_class<void,cl::sycl::exception_list>::_Getimpl
PUBLIC	?_Set@?$_Func_class@XVexception_list@sycl@cl@@@std@@AEAAXPEAV?$_Func_base@XVexception_list@sycl@cl@@@2@@Z ; std::_Func_class<void,cl::sycl::exception_list>::_Set
PUBLIC	?_Getspace@?$_Func_class@XVexception_list@sycl@cl@@@std@@AEAAPEAXXZ ; std::_Func_class<void,cl::sycl::exception_list>::_Getspace
PUBLIC	?_Getspace@?$_Func_class@XVexception_list@sycl@cl@@@std@@AEBAPEBXXZ ; std::_Func_class<void,cl::sycl::exception_list>::_Getspace
PUBLIC	??$forward@Vexception_list@sycl@cl@@@std@@YA$$QEAVexception_list@sycl@cl@@AEAV123@@Z ; std::forward<cl::sycl::exception_list>
PUBLIC	main
PUBLIC	??1?$_Iterator012@Urandom_access_iterator_tag@std@@Vexception_ptr@2@_JPEBV32@AEBV32@U_Iterator_base12@2@@std@@QEAA@XZ ; std::_Iterator012<std::random_access_iterator_tag,std::exception_ptr,__int64,std::exception_ptr const * __ptr64,std::exception_ptr const & __ptr64,std::_Iterator_base12>::~_Iterator012<std::random_access_iterator_tag,std::exception_ptr,__int64,std::exception_ptr const * __ptr64,std::exception_ptr const & __ptr64,std::_Iterator_base12>
PUBLIC	??D?$_Vector_const_iterator@V?$_Vector_val@U?$_Simple_types@Vexception_ptr@std@@@std@@@std@@@std@@QEBAAEBVexception_ptr@1@XZ ; std::_Vector_const_iterator<std::_Vector_val<std::_Simple_types<std::exception_ptr> > >::operator*
PUBLIC	??E?$_Vector_const_iterator@V?$_Vector_val@U?$_Simple_types@Vexception_ptr@std@@@std@@@std@@@std@@QEAAAEAV01@XZ ; std::_Vector_const_iterator<std::_Vector_val<std::_Simple_types<std::exception_ptr> > >::operator++
PUBLIC	??8?$_Vector_const_iterator@V?$_Vector_val@U?$_Simple_types@Vexception_ptr@std@@@std@@@std@@@std@@QEBA_NAEBV01@@Z ; std::_Vector_const_iterator<std::_Vector_val<std::_Simple_types<std::exception_ptr> > >::operator==
PUBLIC	??9?$_Vector_const_iterator@V?$_Vector_val@U?$_Simple_types@Vexception_ptr@std@@@std@@@std@@@std@@QEBA_NAEBV01@@Z ; std::_Vector_const_iterator<std::_Vector_val<std::_Simple_types<std::exception_ptr> > >::operator!=
PUBLIC	?_Compat@?$_Vector_const_iterator@V?$_Vector_val@U?$_Simple_types@Vexception_ptr@std@@@std@@@std@@@std@@QEBAXAEBV12@@Z ; std::_Vector_const_iterator<std::_Vector_val<std::_Simple_types<std::exception_ptr> > >::_Compat
PUBLIC	??1?$_Vector_const_iterator@V?$_Vector_val@U?$_Simple_types@Vexception_ptr@std@@@std@@@std@@@std@@QEAA@XZ ; std::_Vector_const_iterator<std::_Vector_val<std::_Simple_types<std::exception_ptr> > >::~_Vector_const_iterator<std::_Vector_val<std::_Simple_types<std::exception_ptr> > >
PUBLIC	??$?6U?$char_traits@D@std@@@std@@YAAEAV?$basic_ostream@DU?$char_traits@D@std@@@0@AEAV10@PEBD@Z ; std::operator<<<std::char_traits<char> >
PUBLIC	??$forward@AEAV<lambda_39ab90f1c5f9e6f03c358ede9dc45e4d>@@@std@@YAAEAV<lambda_39ab90f1c5f9e6f03c358ede9dc45e4d>@@AEAV1@@Z ; std::forward<<lambda_39ab90f1c5f9e6f03c358ede9dc45e4d> & __ptr64>
PUBLIC	??$_Call@AEAV<lambda_39ab90f1c5f9e6f03c358ede9dc45e4d>@@Vexception_list@sycl@cl@@@_Invoker_functor@std@@SAXAEAV<lambda_39ab90f1c5f9e6f03c358ede9dc45e4d>@@$$QEAVexception_list@sycl@cl@@@Z ; std::_Invoker_functor::_Call<<lambda_39ab90f1c5f9e6f03c358ede9dc45e4d> & __ptr64,cl::sycl::exception_list>
PUBLIC	??$invoke@AEAV<lambda_39ab90f1c5f9e6f03c358ede9dc45e4d>@@Vexception_list@sycl@cl@@@std@@YAXAEAV<lambda_39ab90f1c5f9e6f03c358ede9dc45e4d>@@$$QEAVexception_list@sycl@cl@@@Z ; std::invoke<<lambda_39ab90f1c5f9e6f03c358ede9dc45e4d> & __ptr64,cl::sycl::exception_list>
PUBLIC	??$?0V<lambda_39ab90f1c5f9e6f03c358ede9dc45e4d>@@XX@?$function@$$A6AXVexception_list@sycl@cl@@@Z@std@@QEAA@V<lambda_39ab90f1c5f9e6f03c358ede9dc45e4d>@@@Z ; std::function<void __cdecl(cl::sycl::exception_list)>::function<void __cdecl(cl::sycl::exception_list)><<lambda_39ab90f1c5f9e6f03c358ede9dc45e4d>,void,void>
PUBLIC	??0?$buffer@H$00V?$aligned_allocator@H@aligned_mem@detail@sycl@cl@@@sycl@cl@@QEAA@PEAHAEBV?$range@$00@12@AEBVproperty_list@codeplay@12@@Z ; cl::sycl::buffer<int,1,cl::sycl::detail::aligned_mem::aligned_allocator<int> >::buffer<int,1,cl::sycl::detail::aligned_mem::aligned_allocator<int> >
PUBLIC	??1?$buffer@H$00V?$aligned_allocator@H@aligned_mem@detail@sycl@cl@@@sycl@cl@@UEAA@XZ ; cl::sycl::buffer<int,1,cl::sycl::detail::aligned_mem::aligned_allocator<int> >::~buffer<int,1,cl::sycl::detail::aligned_mem::aligned_allocator<int> >
PUBLIC	??_G?$buffer@H$00V?$aligned_allocator@H@aligned_mem@detail@sycl@cl@@@sycl@cl@@UEAAPEAXI@Z ; cl::sycl::buffer<int,1,cl::sycl::detail::aligned_mem::aligned_allocator<int> >::`scalar deleting destructor'
PUBLIC	??$?0$$V@property_list@codeplay@sycl@cl@@QEAA@XZ ; cl::sycl::codeplay::property_list::property_list<>
PUBLIC	?get_global_item@?$nd_item@$00@sycl@cl@@AEBA?AV?$item@$00@23@XZ ; cl::sycl::nd_item<1>::get_global_item
PUBLIC	??0?$nd_item@$00@sycl@cl@@QEAA@AEBVnd_item_base@detail@12@@Z ; cl::sycl::nd_item<1>::nd_item<1>
PUBLIC	?get_global@?$nd_item@$00@sycl@cl@@QEBA?AV?$id@$00@23@XZ ; cl::sycl::nd_item<1>::get_global
PUBLIC	??$get_access@$01$00@?$buffer@H$00V?$aligned_allocator@H@aligned_mem@detail@sycl@cl@@@sycl@cl@@QEAA?AV?$accessor@H$00$01$00$0A@@12@AEAVhandler@12@@Z ; cl::sycl::buffer<int,1,cl::sycl::detail::aligned_mem::aligned_allocator<int> >::get_access<2,1>
PUBLIC	??0?$accessor_common@H$00$01$00$0A@@detail@sycl@cl@@QEAA@AEAVstorage_mem@23@AEAVhandler@23@@Z ; cl::sycl::detail::accessor_common<int,1,2,1,0>::accessor_common<int,1,2,1,0>
PUBLIC	?get_device_ptr@?$accessor_common@H$00$01$00$0A@@detail@sycl@cl@@QEBAPEAHXZ ; cl::sycl::detail::accessor_common<int,1,2,1,0>::get_device_ptr
PUBLIC	?get_range@?$accessor_common@H$00$01$00$0A@@detail@sycl@cl@@QEBA?AV?$range@$00@34@XZ ; cl::sycl::detail::accessor_common<int,1,2,1,0>::get_range
PUBLIC	??1?$accessor_common@H$00$01$00$0A@@detail@sycl@cl@@QEAA@XZ ; cl::sycl::detail::accessor_common<int,1,2,1,0>::~accessor_common<int,1,2,1,0>
PUBLIC	??0?$accessor_common@H$00$01$00$0A@@detail@sycl@cl@@QEAA@AEBV0123@@Z ; cl::sycl::detail::accessor_common<int,1,2,1,0>::accessor_common<int,1,2,1,0>
PUBLIC	??0?$accessor_common@H$00$01$00$0A@@detail@sycl@cl@@QEAA@$$QEAV0123@@Z ; cl::sycl::detail::accessor_common<int,1,2,1,0>::accessor_common<int,1,2,1,0>
PUBLIC	??1?$accessor@H$00$01$00$0A@@sycl@cl@@QEAA@XZ	; cl::sycl::accessor<int,1,2,1,0>::~accessor<int,1,2,1,0>
PUBLIC	??0?$accessor@H$00$01$00$0A@@sycl@cl@@QEAA@AEBV012@@Z ; cl::sycl::accessor<int,1,2,1,0>::accessor<int,1,2,1,0>
PUBLIC	??0?$accessor@H$00$01$00$0A@@sycl@cl@@QEAA@$$QEAV012@@Z ; cl::sycl::accessor<int,1,2,1,0>::accessor<int,1,2,1,0>
PUBLIC	??0?$nd_range@$00@sycl@cl@@QEAA@V?$range@$00@12@0V?$id@$00@12@@Z ; cl::sycl::nd_range<1>::nd_range<1>
PUBLIC	??$?AHX@?$accessor_common@H$00$01$00$0A@@detail@sycl@cl@@QEBAAEAHV?$id@$00@23@@Z ; cl::sycl::detail::accessor_common<int,1,2,1,0>::operator[]<int,void>
PUBLIC	??$parallel_for@Vassign_elements@@V<lambda_a7f33fec5b6c4de3460ce58d02d2d54d>@@$00@handler@sycl@cl@@QEAAXAEBV?$nd_range@$00@12@AEBV<lambda_a7f33fec5b6c4de3460ce58d02d2d54d>@@@Z ; cl::sycl::handler::parallel_for<assign_elements,<lambda_a7f33fec5b6c4de3460ce58d02d2d54d>,1>
PUBLIC	??$submit@V<lambda_3f9c5c7b45595c947291c392d386a98c>@@@queue@sycl@cl@@QEAA?AVhandler_event@12@V<lambda_3f9c5c7b45595c947291c392d386a98c>@@@Z ; cl::sycl::queue::submit<<lambda_3f9c5c7b45595c947291c392d386a98c> >
PUBLIC	??$endl@DU?$char_traits@D@std@@@std@@YAAEAV?$basic_ostream@DU?$char_traits@D@std@@@0@AEAV10@@Z ; std::endl<char,std::char_traits<char> >
PUBLIC	??0?$item@$00@sycl@cl@@QEAA@AEBVitem_base@detail@12@@Z ; cl::sycl::item<1>::item<1>
PUBLIC	?get@?$item@$00@sycl@cl@@QEBA?AV?$id@$00@23@XZ	; cl::sycl::item<1>::get
PUBLIC	??0?$_Ptr_base@X@std@@QEAA@XZ			; std::_Ptr_base<void>::_Ptr_base<void>
PUBLIC	?_Decref@?$_Ptr_base@X@std@@QEAAXXZ		; std::_Ptr_base<void>::_Decref
PUBLIC	?_Reset0@?$_Ptr_base@X@std@@QEAAXPEAXPEAV_Ref_count_base@2@@Z ; std::_Ptr_base<void>::_Reset0
PUBLIC	??1?$shared_ptr@X@std@@QEAA@XZ			; std::shared_ptr<void>::~shared_ptr<void>
PUBLIC	??$?0XUNullDeleter@detail@sycl@cl@@@?$shared_ptr@X@std@@QEAA@PEAXUNullDeleter@detail@sycl@cl@@@Z ; std::shared_ptr<void>::shared_ptr<void><void,cl::sycl::detail::NullDeleter>
PUBLIC	??$move@V?$shared_ptr@X@std@@@std@@YA$$QEAV?$shared_ptr@X@0@$$QEAV10@@Z ; std::move<std::shared_ptr<void> >
PUBLIC	?get@?$make_base_allocator@HV?$aligned_allocator@H@aligned_mem@detail@sycl@cl@@@detail@sycl@cl@@SA?AV?$unique_ptr@Vbase_allocator@detail@sycl@cl@@U?$default_delete@Vbase_allocator@detail@sycl@cl@@@std@@@std@@XZ ; cl::sycl::detail::make_base_allocator<int,cl::sycl::detail::aligned_mem::aligned_allocator<int> >::get
PUBLIC	??$_Debug_pointer@$$CBD@std@@YAXPEBDPEB_WI@Z	; std::_Debug_pointer<char const >
PUBLIC	??$move@AEAU?$_Wrap_alloc@V?$allocator@D@std@@@std@@@std@@YA$$QEAU?$_Wrap_alloc@V?$allocator@D@std@@@0@AEAU10@@Z ; std::move<std::_Wrap_alloc<std::allocator<char> > & __ptr64>
PUBLIC	??$?0U?$_Wrap_alloc@V?$allocator@D@std@@@std@@X@?$_String_alloc@U?$_String_base_types@DV?$allocator@D@std@@@std@@@std@@QEAA@$$QEAU?$_Wrap_alloc@V?$allocator@D@std@@@1@@Z ; std::_String_alloc<std::_String_base_types<char,std::allocator<char> > >::_String_alloc<std::_String_base_types<char,std::allocator<char> > ><std::_Wrap_alloc<std::allocator<char> >,void>
PUBLIC	??0_Sentry_base@?$basic_ostream@DU?$char_traits@D@std@@@std@@QEAA@AEAV12@@Z ; std::basic_ostream<char,std::char_traits<char> >::_Sentry_base::_Sentry_base
PUBLIC	??1_Sentry_base@?$basic_ostream@DU?$char_traits@D@std@@@std@@QEAA@XZ ; std::basic_ostream<char,std::char_traits<char> >::_Sentry_base::~_Sentry_base
PUBLIC	??0sentry@?$basic_ostream@DU?$char_traits@D@std@@@std@@QEAA@AEAV12@@Z ; std::basic_ostream<char,std::char_traits<char> >::sentry::sentry
PUBLIC	??1sentry@?$basic_ostream@DU?$char_traits@D@std@@@std@@QEAA@XZ ; std::basic_ostream<char,std::char_traits<char> >::sentry::~sentry
PUBLIC	??Bsentry@?$basic_ostream@DU?$char_traits@D@std@@@std@@QEBA_NXZ ; std::basic_ostream<char,std::char_traits<char> >::sentry::operator bool
PUBLIC	??0?$typed_allocator@HV?$aligned_allocator@H@aligned_mem@detail@sycl@cl@@@detail@sycl@cl@@QEAA@XZ ; cl::sycl::detail::typed_allocator<int,cl::sycl::detail::aligned_mem::aligned_allocator<int> >::typed_allocator<int,cl::sycl::detail::aligned_mem::aligned_allocator<int> >
PUBLIC	??1?$typed_allocator@HV?$aligned_allocator@H@aligned_mem@detail@sycl@cl@@@detail@sycl@cl@@UEAA@XZ ; cl::sycl::detail::typed_allocator<int,cl::sycl::detail::aligned_mem::aligned_allocator<int> >::~typed_allocator<int,cl::sycl::detail::aligned_mem::aligned_allocator<int> >
PUBLIC	?allocate@?$typed_allocator@HV?$aligned_allocator@H@aligned_mem@detail@sycl@cl@@@detail@sycl@cl@@UEAAPEAX_K@Z ; cl::sycl::detail::typed_allocator<int,cl::sycl::detail::aligned_mem::aligned_allocator<int> >::allocate
PUBLIC	?deallocate@?$typed_allocator@HV?$aligned_allocator@H@aligned_mem@detail@sycl@cl@@@detail@sycl@cl@@UEAAXPEAX_K@Z ; cl::sycl::detail::typed_allocator<int,cl::sycl::detail::aligned_mem::aligned_allocator<int> >::deallocate
PUBLIC	??0?$allocator@H@std@@QEAA@XZ			; std::allocator<int>::allocator<int>
PUBLIC	??0?$allocator@H@std@@QEAA@AEBV01@@Z		; std::allocator<int>::allocator<int>
PUBLIC	??0?$aligned_allocator@H@aligned_mem@detail@sycl@cl@@QEAA@_K0@Z ; cl::sycl::detail::aligned_mem::aligned_allocator<int>::aligned_allocator<int>
PUBLIC	?allocate@?$aligned_allocator@H@aligned_mem@detail@sycl@cl@@UEAAPEAX_K@Z ; cl::sycl::detail::aligned_mem::aligned_allocator<int>::allocate
PUBLIC	?deallocate@?$aligned_allocator@H@aligned_mem@detail@sycl@cl@@UEAAXPEAX_K@Z ; cl::sycl::detail::aligned_mem::aligned_allocator<int>::deallocate
PUBLIC	??1?$aligned_allocator@H@aligned_mem@detail@sycl@cl@@UEAA@XZ ; cl::sycl::detail::aligned_mem::aligned_allocator<int>::~aligned_allocator<int>
PUBLIC	??_G?$aligned_allocator@H@aligned_mem@detail@sycl@cl@@UEAAPEAXI@Z ; cl::sycl::detail::aligned_mem::aligned_allocator<int>::`scalar deleting destructor'
PUBLIC	??_G?$typed_allocator@HV?$aligned_allocator@H@aligned_mem@detail@sycl@cl@@@detail@sycl@cl@@UEAAPEAXI@Z ; cl::sycl::detail::typed_allocator<int,cl::sycl::detail::aligned_mem::aligned_allocator<int> >::`scalar deleting destructor'
PUBLIC	??R?$default_delete@V?$typed_allocator@HV?$aligned_allocator@H@aligned_mem@detail@sycl@cl@@@detail@sycl@cl@@@std@@QEBAXPEAV?$typed_allocator@HV?$aligned_allocator@H@aligned_mem@detail@sycl@cl@@@detail@sycl@cl@@@Z ; std::default_delete<cl::sycl::detail::typed_allocator<int,cl::sycl::detail::aligned_mem::aligned_allocator<int> > >::operator()
PUBLIC	?get_deleter@?$_Unique_ptr_base@V?$typed_allocator@HV?$aligned_allocator@H@aligned_mem@detail@sycl@cl@@@detail@sycl@cl@@U?$default_delete@V?$typed_allocator@HV?$aligned_allocator@H@aligned_mem@detail@sycl@cl@@@detail@sycl@cl@@@std@@@std@@QEAAAEAU?$default_delete@V?$typed_allocator@HV?$aligned_allocator@H@aligned_mem@detail@sycl@cl@@@detail@sycl@cl@@@2@XZ ; std::_Unique_ptr_base<cl::sycl::detail::typed_allocator<int,cl::sycl::detail::aligned_mem::aligned_allocator<int> >,std::default_delete<cl::sycl::detail::typed_allocator<int,cl::sycl::detail::aligned_mem::aligned_allocator<int> > > >::get_deleter
PUBLIC	?_Myptr@?$_Unique_ptr_base@V?$typed_allocator@HV?$aligned_allocator@H@aligned_mem@detail@sycl@cl@@@detail@sycl@cl@@U?$default_delete@V?$typed_allocator@HV?$aligned_allocator@H@aligned_mem@detail@sycl@cl@@@detail@sycl@cl@@@std@@@std@@QEAAAEAPEAV?$typed_allocator@HV?$aligned_allocator@H@aligned_mem@detail@sycl@cl@@@detail@sycl@cl@@XZ ; std::_Unique_ptr_base<cl::sycl::detail::typed_allocator<int,cl::sycl::detail::aligned_mem::aligned_allocator<int> >,std::default_delete<cl::sycl::detail::typed_allocator<int,cl::sycl::detail::aligned_mem::aligned_allocator<int> > > >::_Myptr
PUBLIC	?_Myptr@?$_Unique_ptr_base@V?$typed_allocator@HV?$aligned_allocator@H@aligned_mem@detail@sycl@cl@@@detail@sycl@cl@@U?$default_delete@V?$typed_allocator@HV?$aligned_allocator@H@aligned_mem@detail@sycl@cl@@@detail@sycl@cl@@@std@@@std@@QEBAAEBQEAV?$typed_allocator@HV?$aligned_allocator@H@aligned_mem@detail@sycl@cl@@@detail@sycl@cl@@XZ ; std::_Unique_ptr_base<cl::sycl::detail::typed_allocator<int,cl::sycl::detail::aligned_mem::aligned_allocator<int> >,std::default_delete<cl::sycl::detail::typed_allocator<int,cl::sycl::detail::aligned_mem::aligned_allocator<int> > > >::_Myptr
PUBLIC	?_Get_first@?$_Compressed_pair@U?$default_delete@V?$typed_allocator@HV?$aligned_allocator@H@aligned_mem@detail@sycl@cl@@@detail@sycl@cl@@@std@@PEAV?$typed_allocator@HV?$aligned_allocator@H@aligned_mem@detail@sycl@cl@@@detail@sycl@cl@@$00@std@@QEAAAEAU?$default_delete@V?$typed_allocator@HV?$aligned_allocator@H@aligned_mem@detail@sycl@cl@@@detail@sycl@cl@@@2@XZ ; std::_Compressed_pair<std::default_delete<cl::sycl::detail::typed_allocator<int,cl::sycl::detail::aligned_mem::aligned_allocator<int> > >,cl::sycl::detail::typed_allocator<int,cl::sycl::detail::aligned_mem::aligned_allocator<int> > * __ptr64,1>::_Get_first
PUBLIC	?_Get_second@?$_Compressed_pair@U?$default_delete@V?$typed_allocator@HV?$aligned_allocator@H@aligned_mem@detail@sycl@cl@@@detail@sycl@cl@@@std@@PEAV?$typed_allocator@HV?$aligned_allocator@H@aligned_mem@detail@sycl@cl@@@detail@sycl@cl@@$00@std@@QEAAAEAPEAV?$typed_allocator@HV?$aligned_allocator@H@aligned_mem@detail@sycl@cl@@@detail@sycl@cl@@XZ ; std::_Compressed_pair<std::default_delete<cl::sycl::detail::typed_allocator<int,cl::sycl::detail::aligned_mem::aligned_allocator<int> > >,cl::sycl::detail::typed_allocator<int,cl::sycl::detail::aligned_mem::aligned_allocator<int> > * __ptr64,1>::_Get_second
PUBLIC	?_Get_second@?$_Compressed_pair@U?$default_delete@V?$typed_allocator@HV?$aligned_allocator@H@aligned_mem@detail@sycl@cl@@@detail@sycl@cl@@@std@@PEAV?$typed_allocator@HV?$aligned_allocator@H@aligned_mem@detail@sycl@cl@@@detail@sycl@cl@@$00@std@@QEBAAEBQEAV?$typed_allocator@HV?$aligned_allocator@H@aligned_mem@detail@sycl@cl@@@detail@sycl@cl@@XZ ; std::_Compressed_pair<std::default_delete<cl::sycl::detail::typed_allocator<int,cl::sycl::detail::aligned_mem::aligned_allocator<int> > >,cl::sycl::detail::typed_allocator<int,cl::sycl::detail::aligned_mem::aligned_allocator<int> > * __ptr64,1>::_Get_second
PUBLIC	??0?$unique_ptr@V?$typed_allocator@HV?$aligned_allocator@H@aligned_mem@detail@sycl@cl@@@detail@sycl@cl@@U?$default_delete@V?$typed_allocator@HV?$aligned_allocator@H@aligned_mem@detail@sycl@cl@@@detail@sycl@cl@@@std@@@std@@QEAA@PEAV?$typed_allocator@HV?$aligned_allocator@H@aligned_mem@detail@sycl@cl@@@detail@sycl@cl@@@Z ; std::unique_ptr<cl::sycl::detail::typed_allocator<int,cl::sycl::detail::aligned_mem::aligned_allocator<int> >,std::default_delete<cl::sycl::detail::typed_allocator<int,cl::sycl::detail::aligned_mem::aligned_allocator<int> > > >::unique_ptr<cl::sycl::detail::typed_allocator<int,cl::sycl::detail::aligned_mem::aligned_allocator<int> >,std::default_delete<cl::sycl::detail::typed_allocator<int,cl::sycl::detail::aligned_mem::aligned_allocator<int> > > >
PUBLIC	??1?$unique_ptr@V?$typed_allocator@HV?$aligned_allocator@H@aligned_mem@detail@sycl@cl@@@detail@sycl@cl@@U?$default_delete@V?$typed_allocator@HV?$aligned_allocator@H@aligned_mem@detail@sycl@cl@@@detail@sycl@cl@@@std@@@std@@QEAA@XZ ; std::unique_ptr<cl::sycl::detail::typed_allocator<int,cl::sycl::detail::aligned_mem::aligned_allocator<int> >,std::default_delete<cl::sycl::detail::typed_allocator<int,cl::sycl::detail::aligned_mem::aligned_allocator<int> > > >::~unique_ptr<cl::sycl::detail::typed_allocator<int,cl::sycl::detail::aligned_mem::aligned_allocator<int> >,std::default_delete<cl::sycl::detail::typed_allocator<int,cl::sycl::detail::aligned_mem::aligned_allocator<int> > > >
PUBLIC	?get@?$unique_ptr@V?$typed_allocator@HV?$aligned_allocator@H@aligned_mem@detail@sycl@cl@@@detail@sycl@cl@@U?$default_delete@V?$typed_allocator@HV?$aligned_allocator@H@aligned_mem@detail@sycl@cl@@@detail@sycl@cl@@@std@@@std@@QEBAPEAV?$typed_allocator@HV?$aligned_allocator@H@aligned_mem@detail@sycl@cl@@@detail@sycl@cl@@XZ ; std::unique_ptr<cl::sycl::detail::typed_allocator<int,cl::sycl::detail::aligned_mem::aligned_allocator<int> >,std::default_delete<cl::sycl::detail::typed_allocator<int,cl::sycl::detail::aligned_mem::aligned_allocator<int> > > >::get
PUBLIC	?release@?$unique_ptr@V?$typed_allocator@HV?$aligned_allocator@H@aligned_mem@detail@sycl@cl@@@detail@sycl@cl@@U?$default_delete@V?$typed_allocator@HV?$aligned_allocator@H@aligned_mem@detail@sycl@cl@@@detail@sycl@cl@@@std@@@std@@QEAAPEAV?$typed_allocator@HV?$aligned_allocator@H@aligned_mem@detail@sycl@cl@@@detail@sycl@cl@@XZ ; std::unique_ptr<cl::sycl::detail::typed_allocator<int,cl::sycl::detail::aligned_mem::aligned_allocator<int> >,std::default_delete<cl::sycl::detail::typed_allocator<int,cl::sycl::detail::aligned_mem::aligned_allocator<int> > > >::release
PUBLIC	??$?0V?$typed_allocator@HV?$aligned_allocator@H@aligned_mem@detail@sycl@cl@@@detail@sycl@cl@@X@?$default_delete@Vbase_allocator@detail@sycl@cl@@@std@@QEAA@AEBU?$default_delete@V?$typed_allocator@HV?$aligned_allocator@H@aligned_mem@detail@sycl@cl@@@detail@sycl@cl@@@1@@Z ; std::default_delete<cl::sycl::detail::base_allocator>::default_delete<cl::sycl::detail::base_allocator><cl::sycl::detail::typed_allocator<int,cl::sycl::detail::aligned_mem::aligned_allocator<int> >,void>
PUBLIC	??$?0V?$typed_allocator@HV?$aligned_allocator@H@aligned_mem@detail@sycl@cl@@@detail@sycl@cl@@U?$default_delete@V?$typed_allocator@HV?$aligned_allocator@H@aligned_mem@detail@sycl@cl@@@detail@sycl@cl@@@std@@X@?$unique_ptr@Vbase_allocator@detail@sycl@cl@@U?$default_delete@Vbase_allocator@detail@sycl@cl@@@std@@@std@@QEAA@$$QEAV?$unique_ptr@V?$typed_allocator@HV?$aligned_allocator@H@aligned_mem@detail@sycl@cl@@@detail@sycl@cl@@U?$default_delete@V?$typed_allocator@HV?$aligned_allocator@H@aligned_mem@detail@sycl@cl@@@detail@sycl@cl@@@std@@@1@@Z ; std::unique_ptr<cl::sycl::detail::base_allocator,std::default_delete<cl::sycl::detail::base_allocator> >::unique_ptr<cl::sycl::detail::base_allocator,std::default_delete<cl::sycl::detail::base_allocator> ><cl::sycl::detail::typed_allocator<int,cl::sycl::detail::aligned_mem::aligned_allocator<int> >,std::default_delete<cl::sycl::detail::typed_allocator<int,cl::sycl::detail::aligned_mem::aligned_allocator<int> > >,void>
PUBLIC	??$?0V?$allocator@D@std@@@?$_Wrap_alloc@V?$allocator@D@std@@@std@@QEAA@$$QEAV?$allocator@D@1@@Z ; std::_Wrap_alloc<std::allocator<char> >::_Wrap_alloc<std::allocator<char> ><std::allocator<char> >
PUBLIC	??$?0$$V@?$_Compressed_pair@U?$_Wrap_alloc@V?$allocator@D@std@@@std@@V?$_String_val@U?$_Simple_types@D@std@@@2@$00@std@@QEAA@U_Zero_then_variadic_args_t@1@@Z ; std::_Compressed_pair<std::_Wrap_alloc<std::allocator<char> >,std::_String_val<std::_Simple_types<char> >,1>::_Compressed_pair<std::_Wrap_alloc<std::allocator<char> >,std::_String_val<std::_Simple_types<char> >,1><>
PUBLIC	??$addressof@PEAD@std@@YAPEAPEADAEAPEAD@Z	; std::addressof<char * __ptr64>
PUBLIC	??$destroy@PEAD@?$_Wrap_alloc@V?$allocator@D@std@@@std@@QEAAXPEAPEAD@Z ; std::_Wrap_alloc<std::allocator<char> >::destroy<char * __ptr64>
PUBLIC	??$_Unfancy@D@std@@YAPEADPEAD@Z			; std::_Unfancy<char>
PUBLIC	??$_Debug_pointer_if@$$CBD@std@@YAX_NPEBDPEB_WI@Z ; std::_Debug_pointer_if<char const >
PUBLIC	??$construct@PEADAEAPEAD@?$_Wrap_alloc@V?$allocator@D@std@@@std@@QEAAXPEAPEADAEAPEAD@Z ; std::_Wrap_alloc<std::allocator<char> >::construct<char * __ptr64,char * __ptr64 & __ptr64>
PUBLIC	??$?0PEAV?$typed_allocator@HV?$aligned_allocator@H@aligned_mem@detail@sycl@cl@@@detail@sycl@cl@@@?$_Unique_ptr_base@V?$typed_allocator@HV?$aligned_allocator@H@aligned_mem@detail@sycl@cl@@@detail@sycl@cl@@U?$default_delete@V?$typed_allocator@HV?$aligned_allocator@H@aligned_mem@detail@sycl@cl@@@detail@sycl@cl@@@std@@@std@@QEAA@PEAV?$typed_allocator@HV?$aligned_allocator@H@aligned_mem@detail@sycl@cl@@@detail@sycl@cl@@@Z ; std::_Unique_ptr_base<cl::sycl::detail::typed_allocator<int,cl::sycl::detail::aligned_mem::aligned_allocator<int> >,std::default_delete<cl::sycl::detail::typed_allocator<int,cl::sycl::detail::aligned_mem::aligned_allocator<int> > > >::_Unique_ptr_base<cl::sycl::detail::typed_allocator<int,cl::sycl::detail::aligned_mem::aligned_allocator<int> >,std::default_delete<cl::sycl::detail::typed_allocator<int,cl::sycl::detail::aligned_mem::aligned_allocator<int> > > ><cl::sycl::detail::typed_allocator<int,cl::sycl::detail::aligned_mem::aligned_allocator<int> > * __ptr64>
PUBLIC	??0?$_Func_base@XVexception_list@sycl@cl@@@std@@QEAA@XZ ; std::_Func_base<void,cl::sycl::exception_list>::_Func_base<void,cl::sycl::exception_list>
PUBLIC	??1?$_Func_base@XVexception_list@sycl@cl@@@std@@QEAA@XZ ; std::_Func_base<void,cl::sycl::exception_list>::~_Func_base<void,cl::sycl::exception_list>
PUBLIC	?deallocate@?$allocator@U_Container_proxy@std@@@std@@QEAAXPEAU_Container_proxy@2@_K@Z ; std::allocator<std::_Container_proxy>::deallocate
PUBLIC	?allocate@?$allocator@U_Container_proxy@std@@@std@@QEAAPEAU_Container_proxy@2@_K@Z ; std::allocator<std::_Container_proxy>::allocate
PUBLIC	?address@?$_Wrap_alloc@V?$allocator@U_Container_proxy@std@@@std@@@std@@QEBAPEAU_Container_proxy@2@AEAU32@@Z ; std::_Wrap_alloc<std::allocator<std::_Container_proxy> >::address
PUBLIC	?allocate@?$_Wrap_alloc@V?$allocator@U_Container_proxy@std@@@std@@@std@@QEAAPEAU_Container_proxy@2@_K@Z ; std::_Wrap_alloc<std::allocator<std::_Container_proxy> >::allocate
PUBLIC	?deallocate@?$_Wrap_alloc@V?$allocator@U_Container_proxy@std@@@std@@@std@@QEAAXPEAU_Container_proxy@2@_K@Z ; std::_Wrap_alloc<std::allocator<std::_Container_proxy> >::deallocate
PUBLIC	??$destroy@U_Container_proxy@std@@@?$_Wrap_alloc@V?$allocator@U_Container_proxy@std@@@std@@@std@@QEAAXPEAU_Container_proxy@1@@Z ; std::_Wrap_alloc<std::allocator<std::_Container_proxy> >::destroy<std::_Container_proxy>
PUBLIC	??$_Unfancy@U_Container_proxy@std@@@std@@YAPEAU_Container_proxy@0@PEAU10@@Z ; std::_Unfancy<std::_Container_proxy>
PUBLIC	??$construct@U_Container_proxy@std@@U12@@?$_Wrap_alloc@V?$allocator@U_Container_proxy@std@@@std@@@std@@QEAAXPEAU_Container_proxy@1@$$QEAU21@@Z ; std::_Wrap_alloc<std::allocator<std::_Container_proxy> >::construct<std::_Container_proxy,std::_Container_proxy>
PUBLIC	??$?0AEAU?$_Wrap_alloc@V?$allocator@D@std@@@std@@@?$_Wrap_alloc@V?$allocator@U_Container_proxy@std@@@std@@@std@@QEAA@AEAU?$_Wrap_alloc@V?$allocator@D@std@@@1@@Z ; std::_Wrap_alloc<std::allocator<std::_Container_proxy> >::_Wrap_alloc<std::allocator<std::_Container_proxy> ><std::_Wrap_alloc<std::allocator<char> > & __ptr64>
PUBLIC	?pointer_to@?$pointer_traits@PEAU_Container_proxy@std@@@std@@SAPEAU_Container_proxy@2@AEAU32@@Z ; std::pointer_traits<std::_Container_proxy * __ptr64>::pointer_to
PUBLIC	??$addressof@U_Container_proxy@std@@@std@@YAPEAU_Container_proxy@0@AEAU10@@Z ; std::addressof<std::_Container_proxy>
PUBLIC	??$move@AEAV<lambda_39ab90f1c5f9e6f03c358ede9dc45e4d>@@@std@@YA$$QEAV<lambda_39ab90f1c5f9e6f03c358ede9dc45e4d>@@AEAV1@@Z ; std::move<<lambda_39ab90f1c5f9e6f03c358ede9dc45e4d> & __ptr64>
PUBLIC	??$_Reset@V<lambda_39ab90f1c5f9e6f03c358ede9dc45e4d>@@@?$_Func_class@XVexception_list@sycl@cl@@@std@@IEAAX$$QEAV<lambda_39ab90f1c5f9e6f03c358ede9dc45e4d>@@@Z ; std::_Func_class<void,cl::sycl::exception_list>::_Reset<<lambda_39ab90f1c5f9e6f03c358ede9dc45e4d> >
PUBLIC	?apply@?$add_properties@$$V@detail@sycl@cl@@SAXAEAV?$vector@V?$shared_ptr@Vproperty_base@detail@sycl@cl@@@std@@V?$allocator@V?$shared_ptr@Vproperty_base@detail@sycl@cl@@@std@@@2@@std@@@Z ; cl::sycl::detail::add_properties<>::apply
PUBLIC	??$?0V?$aligned_allocator@H@aligned_mem@detail@sycl@cl@@HX@?$accessor@H$00$01$00$0A@@sycl@cl@@QEAA@AEAV?$buffer@H$00V?$aligned_allocator@H@aligned_mem@detail@sycl@cl@@@12@AEAVhandler@12@@Z ; cl::sycl::accessor<int,1,2,1,0>::accessor<int,1,2,1,0><cl::sycl::detail::aligned_mem::aligned_allocator<int>,int,void>
PUBLIC	??$parallel_for_impl@Vassign_elements@@V<lambda_a7f33fec5b6c4de3460ce58d02d2d54d>@@@handler@sycl@cl@@QEAAXAEBVnd_range_base@detail@12@AEBV<lambda_a7f33fec5b6c4de3460ce58d02d2d54d>@@@Z ; cl::sycl::handler::parallel_for_impl<assign_elements,<lambda_a7f33fec5b6c4de3460ce58d02d2d54d> >
PUBLIC	??$submit_handler@V<lambda_3f9c5c7b45595c947291c392d386a98c>@@@queue@sycl@cl@@IEAA?AVhandler_event@12@V<lambda_3f9c5c7b45595c947291c392d386a98c>@@PEBV012@Ustandard_handler_tag@detail@12@@Z ; cl::sycl::queue::submit_handler<<lambda_3f9c5c7b45595c947291c392d386a98c> >
PUBLIC	??$_Resetp@XUNullDeleter@detail@sycl@cl@@@?$shared_ptr@X@std@@AEAAXPEAXUNullDeleter@detail@sycl@cl@@@Z ; std::shared_ptr<void>::_Resetp<void,cl::sycl::detail::NullDeleter>
PUBLIC	??$forward@U?$_Wrap_alloc@V?$allocator@D@std@@@std@@@std@@YA$$QEAU?$_Wrap_alloc@V?$allocator@D@std@@@0@AEAU10@@Z ; std::forward<std::_Wrap_alloc<std::allocator<char> > >
PUBLIC	??$?0U?$_Wrap_alloc@V?$allocator@D@std@@@std@@$$V@?$_Compressed_pair@U?$_Wrap_alloc@V?$allocator@D@std@@@std@@V?$_String_val@U?$_Simple_types@D@std@@@2@$00@std@@QEAA@U_One_then_variadic_args_t@1@$$QEAU?$_Wrap_alloc@V?$allocator@D@std@@@1@@Z ; std::_Compressed_pair<std::_Wrap_alloc<std::allocator<char> >,std::_String_val<std::_Simple_types<char> >,1>::_Compressed_pair<std::_Wrap_alloc<std::allocator<char> >,std::_String_val<std::_Simple_types<char> >,1><std::_Wrap_alloc<std::allocator<char> > >
PUBLIC	??$forward@U?$default_delete@V?$typed_allocator@HV?$aligned_allocator@H@aligned_mem@detail@sycl@cl@@@detail@sycl@cl@@@std@@@std@@YA$$QEAU?$default_delete@V?$typed_allocator@HV?$aligned_allocator@H@aligned_mem@detail@sycl@cl@@@detail@sycl@cl@@@0@AEAU10@@Z ; std::forward<std::default_delete<cl::sycl::detail::typed_allocator<int,cl::sycl::detail::aligned_mem::aligned_allocator<int> > > >
PUBLIC	??$?0PEAV?$typed_allocator@HV?$aligned_allocator@H@aligned_mem@detail@sycl@cl@@@detail@sycl@cl@@U?$default_delete@V?$typed_allocator@HV?$aligned_allocator@H@aligned_mem@detail@sycl@cl@@@detail@sycl@cl@@@std@@@?$_Unique_ptr_base@Vbase_allocator@detail@sycl@cl@@U?$default_delete@Vbase_allocator@detail@sycl@cl@@@std@@@std@@QEAA@PEAV?$typed_allocator@HV?$aligned_allocator@H@aligned_mem@detail@sycl@cl@@@detail@sycl@cl@@$$QEAU?$default_delete@V?$typed_allocator@HV?$aligned_allocator@H@aligned_mem@detail@sycl@cl@@@detail@sycl@cl@@@1@@Z ; std::_Unique_ptr_base<cl::sycl::detail::base_allocator,std::default_delete<cl::sycl::detail::base_allocator> >::_Unique_ptr_base<cl::sycl::detail::base_allocator,std::default_delete<cl::sycl::detail::base_allocator> ><cl::sycl::detail::typed_allocator<int,cl::sycl::detail::aligned_mem::aligned_allocator<int> > * __ptr64,std::default_delete<cl::sycl::detail::typed_allocator<int,cl::sycl::detail::aligned_mem::aligned_allocator<int> > > >
PUBLIC	??$forward@V?$allocator@D@std@@@std@@YA$$QEAV?$allocator@D@0@AEAV10@@Z ; std::forward<std::allocator<char> >
PUBLIC	??$destroy@PEAD@?$allocator_traits@V?$allocator@D@std@@@std@@SAXAEAV?$allocator@D@1@PEAPEAD@Z ; std::allocator_traits<std::allocator<char> >::destroy<char * __ptr64>
PUBLIC	??$forward@AEAPEAD@std@@YAAEAPEADAEAPEAD@Z	; std::forward<char * __ptr64 & __ptr64>
PUBLIC	??$construct@PEADAEAPEAD@?$allocator_traits@V?$allocator@D@std@@@std@@SAXAEAV?$allocator@D@1@PEAPEADAEAPEAD@Z ; std::allocator_traits<std::allocator<char> >::construct<char * __ptr64,char * __ptr64 & __ptr64>
PUBLIC	??$?0AEAPEAV?$typed_allocator@HV?$aligned_allocator@H@aligned_mem@detail@sycl@cl@@@detail@sycl@cl@@@?$_Compressed_pair@U?$default_delete@V?$typed_allocator@HV?$aligned_allocator@H@aligned_mem@detail@sycl@cl@@@detail@sycl@cl@@@std@@PEAV?$typed_allocator@HV?$aligned_allocator@H@aligned_mem@detail@sycl@cl@@@detail@sycl@cl@@$00@std@@QEAA@U_Zero_then_variadic_args_t@1@AEAPEAV?$typed_allocator@HV?$aligned_allocator@H@aligned_mem@detail@sycl@cl@@@detail@sycl@cl@@@Z ; std::_Compressed_pair<std::default_delete<cl::sycl::detail::typed_allocator<int,cl::sycl::detail::aligned_mem::aligned_allocator<int> > >,cl::sycl::detail::typed_allocator<int,cl::sycl::detail::aligned_mem::aligned_allocator<int> > * __ptr64,1>::_Compressed_pair<std::default_delete<cl::sycl::detail::typed_allocator<int,cl::sycl::detail::aligned_mem::aligned_allocator<int> > >,cl::sycl::detail::typed_allocator<int,cl::sycl::detail::aligned_mem::aligned_allocator<int> > * __ptr64,1><cl::sycl::detail::typed_allocator<int,cl::sycl::detail::aligned_mem::aligned_allocator<int> > * __ptr64 & __ptr64>
PUBLIC	??$destroy@U_Container_proxy@std@@@?$allocator_traits@V?$allocator@U_Container_proxy@std@@@std@@@std@@SAXAEAV?$allocator@U_Container_proxy@std@@@1@PEAU_Container_proxy@1@@Z ; std::allocator_traits<std::allocator<std::_Container_proxy> >::destroy<std::_Container_proxy>
PUBLIC	??$forward@U_Container_proxy@std@@@std@@YA$$QEAU_Container_proxy@0@AEAU10@@Z ; std::forward<std::_Container_proxy>
PUBLIC	??$construct@U_Container_proxy@std@@U12@@?$allocator_traits@V?$allocator@U_Container_proxy@std@@@std@@@std@@SAXAEAV?$allocator@U_Container_proxy@std@@@1@PEAU_Container_proxy@1@$$QEAU31@@Z ; std::allocator_traits<std::allocator<std::_Container_proxy> >::construct<std::_Container_proxy,std::_Container_proxy>
PUBLIC	??$forward@AEAU?$_Wrap_alloc@V?$allocator@D@std@@@std@@@std@@YAAEAU?$_Wrap_alloc@V?$allocator@D@std@@@0@AEAU10@@Z ; std::forward<std::_Wrap_alloc<std::allocator<char> > & __ptr64>
PUBLIC	??$?0D@?$allocator@U_Container_proxy@std@@@std@@QEAA@AEBV?$allocator@D@1@@Z ; std::allocator<std::_Container_proxy>::allocator<std::_Container_proxy><char>
PUBLIC	??$forward@V<lambda_39ab90f1c5f9e6f03c358ede9dc45e4d>@@@std@@YA$$QEAV<lambda_39ab90f1c5f9e6f03c358ede9dc45e4d>@@AEAV1@@Z ; std::forward<<lambda_39ab90f1c5f9e6f03c358ede9dc45e4d> >
PUBLIC	??$_Reset_alloc@V<lambda_39ab90f1c5f9e6f03c358ede9dc45e4d>@@V?$allocator@H@std@@@?$_Func_class@XVexception_list@sycl@cl@@@std@@IEAAX$$QEAV<lambda_39ab90f1c5f9e6f03c358ede9dc45e4d>@@AEBV?$allocator@H@1@@Z ; std::_Func_class<void,cl::sycl::exception_list>::_Reset_alloc<<lambda_39ab90f1c5f9e6f03c358ede9dc45e4d>,std::allocator<int> >
PUBLIC	??$create_program_for_kernel@Vassign_elements@@@program@sycl@cl@@SA?AV012@Vcontext@12@@Z ; cl::sycl::program::create_program_for_kernel<assign_elements>
PUBLIC	??$get_kernel@Vassign_elements@@@program@sycl@cl@@QEBA?AVkernel@12@XZ ; cl::sycl::program::get_kernel<assign_elements>
PUBLIC	??$process_functor_arguments@Vassign_elements@@V<lambda_a7f33fec5b6c4de3460ce58d02d2d54d>@@@handler@sycl@cl@@AEAAXAEBV<lambda_a7f33fec5b6c4de3460ce58d02d2d54d>@@AEAVkernel@12@PEAVEnqueueDeviceKernelCommand@detail@12@@Z ; cl::sycl::handler::process_functor_arguments<assign_elements,<lambda_a7f33fec5b6c4de3460ce58d02d2d54d> >
PUBLIC	??0?$_Func_class@XAEAVnd_item_base@detail@sycl@cl@@@std@@QEAA@XZ ; std::_Func_class<void,cl::sycl::detail::nd_item_base & __ptr64>::_Func_class<void,cl::sycl::detail::nd_item_base & __ptr64>
PUBLIC	??1?$_Func_class@XAEAVnd_item_base@detail@sycl@cl@@@std@@QEAA@XZ ; std::_Func_class<void,cl::sycl::detail::nd_item_base & __ptr64>::~_Func_class<void,cl::sycl::detail::nd_item_base & __ptr64>
PUBLIC	?_Empty@?$_Func_class@XAEAVnd_item_base@detail@sycl@cl@@@std@@IEBA_NXZ ; std::_Func_class<void,cl::sycl::detail::nd_item_base & __ptr64>::_Empty
PUBLIC	?_Tidy@?$_Func_class@XAEAVnd_item_base@detail@sycl@cl@@@std@@IEAAXXZ ; std::_Func_class<void,cl::sycl::detail::nd_item_base & __ptr64>::_Tidy
PUBLIC	?_Local@?$_Func_class@XAEAVnd_item_base@detail@sycl@cl@@@std@@AEBA_NXZ ; std::_Func_class<void,cl::sycl::detail::nd_item_base & __ptr64>::_Local
PUBLIC	?_Getimpl@?$_Func_class@XAEAVnd_item_base@detail@sycl@cl@@@std@@AEBAPEAV?$_Func_base@XAEAVnd_item_base@detail@sycl@cl@@@2@XZ ; std::_Func_class<void,cl::sycl::detail::nd_item_base & __ptr64>::_Getimpl
PUBLIC	?_Set@?$_Func_class@XAEAVnd_item_base@detail@sycl@cl@@@std@@AEAAXPEAV?$_Func_base@XAEAVnd_item_base@detail@sycl@cl@@@2@@Z ; std::_Func_class<void,cl::sycl::detail::nd_item_base & __ptr64>::_Set
PUBLIC	?_Getspace@?$_Func_class@XAEAVnd_item_base@detail@sycl@cl@@@std@@AEBAPEBXXZ ; std::_Func_class<void,cl::sycl::detail::nd_item_base & __ptr64>::_Getspace
PUBLIC	??1?$function@$$A6AXAEAVnd_item_base@detail@sycl@cl@@@Z@std@@QEAA@XZ ; std::function<void __cdecl(cl::sycl::detail::nd_item_base & __ptr64)>::~function<void __cdecl(cl::sycl::detail::nd_item_base & __ptr64)>
PUBLIC	??$forward@AEAV<lambda_a7f33fec5b6c4de3460ce58d02d2d54d>@@@std@@YAAEAV<lambda_a7f33fec5b6c4de3460ce58d02d2d54d>@@AEAV1@@Z ; std::forward<<lambda_a7f33fec5b6c4de3460ce58d02d2d54d> & __ptr64>
PUBLIC	??$forward@AEAVnd_item_base@detail@sycl@cl@@@std@@YAAEAVnd_item_base@detail@sycl@cl@@AEAV1234@@Z ; std::forward<cl::sycl::detail::nd_item_base & __ptr64>
PUBLIC	??$_Call@AEAV<lambda_a7f33fec5b6c4de3460ce58d02d2d54d>@@AEAVnd_item_base@detail@sycl@cl@@@_Invoker_functor@std@@SAXAEAV<lambda_a7f33fec5b6c4de3460ce58d02d2d54d>@@AEAVnd_item_base@detail@sycl@cl@@@Z ; std::_Invoker_functor::_Call<<lambda_a7f33fec5b6c4de3460ce58d02d2d54d> & __ptr64,cl::sycl::detail::nd_item_base & __ptr64>
PUBLIC	??$invoke@AEAV<lambda_a7f33fec5b6c4de3460ce58d02d2d54d>@@AEAVnd_item_base@detail@sycl@cl@@@std@@YAXAEAV<lambda_a7f33fec5b6c4de3460ce58d02d2d54d>@@AEAVnd_item_base@detail@sycl@cl@@@Z ; std::invoke<<lambda_a7f33fec5b6c4de3460ce58d02d2d54d> & __ptr64,cl::sycl::detail::nd_item_base & __ptr64>
PUBLIC	??$?0V<lambda_a7f33fec5b6c4de3460ce58d02d2d54d>@@XX@?$function@$$A6AXAEAVnd_item_base@detail@sycl@cl@@@Z@std@@QEAA@V<lambda_a7f33fec5b6c4de3460ce58d02d2d54d>@@@Z ; std::function<void __cdecl(cl::sycl::detail::nd_item_base & __ptr64)>::function<void __cdecl(cl::sycl::detail::nd_item_base & __ptr64)><<lambda_a7f33fec5b6c4de3460ce58d02d2d54d>,void,void>
PUBLIC	??0?$_Ref_count_del@XUNullDeleter@detail@sycl@cl@@@std@@QEAA@PEAXUNullDeleter@detail@sycl@cl@@@Z ; std::_Ref_count_del<void,cl::sycl::detail::NullDeleter>::_Ref_count_del<void,cl::sycl::detail::NullDeleter>
PUBLIC	?_Get_deleter@?$_Ref_count_del@XUNullDeleter@detail@sycl@cl@@@std@@UEBAPEAXAEBVtype_info@@@Z ; std::_Ref_count_del<void,cl::sycl::detail::NullDeleter>::_Get_deleter
PUBLIC	?_Destroy@?$_Ref_count_del@XUNullDeleter@detail@sycl@cl@@@std@@EEAAXXZ ; std::_Ref_count_del<void,cl::sycl::detail::NullDeleter>::_Destroy
PUBLIC	?_Delete_this@?$_Ref_count_del@XUNullDeleter@detail@sycl@cl@@@std@@EEAAXXZ ; std::_Ref_count_del<void,cl::sycl::detail::NullDeleter>::_Delete_this
PUBLIC	?_Get_first@?$_Compressed_pair@UNullDeleter@detail@sycl@cl@@PEAX$00@std@@QEAAAEAUNullDeleter@detail@sycl@cl@@XZ ; std::_Compressed_pair<cl::sycl::detail::NullDeleter,void * __ptr64,1>::_Get_first
PUBLIC	?_Get_first@?$_Compressed_pair@UNullDeleter@detail@sycl@cl@@PEAX$00@std@@QEBAAEBUNullDeleter@detail@sycl@cl@@XZ ; std::_Compressed_pair<cl::sycl::detail::NullDeleter,void * __ptr64,1>::_Get_first
PUBLIC	?_Get_second@?$_Compressed_pair@UNullDeleter@detail@sycl@cl@@PEAX$00@std@@QEAAAEAPEAXXZ ; std::_Compressed_pair<cl::sycl::detail::NullDeleter,void * __ptr64,1>::_Get_second
PUBLIC	??1?$_Ref_count_del@XUNullDeleter@detail@sycl@cl@@@std@@UEAA@XZ ; std::_Ref_count_del<void,cl::sycl::detail::NullDeleter>::~_Ref_count_del<void,cl::sycl::detail::NullDeleter>
PUBLIC	??_G?$_Ref_count_del@XUNullDeleter@detail@sycl@cl@@@std@@UEAAPEAXI@Z ; std::_Ref_count_del<void,cl::sycl::detail::NullDeleter>::`scalar deleting destructor'
PUBLIC	??$_Resetp0@X@?$shared_ptr@X@std@@QEAAXPEAXPEAV_Ref_count_base@1@@Z ; std::shared_ptr<void>::_Resetp0<void>
PUBLIC	??$?0U?$default_delete@V?$typed_allocator@HV?$aligned_allocator@H@aligned_mem@detail@sycl@cl@@@detail@sycl@cl@@@std@@AEAPEAV?$typed_allocator@HV?$aligned_allocator@H@aligned_mem@detail@sycl@cl@@@detail@sycl@cl@@@?$_Compressed_pair@U?$default_delete@Vbase_allocator@detail@sycl@cl@@@std@@PEAVbase_allocator@detail@sycl@cl@@$00@std@@QEAA@U_One_then_variadic_args_t@1@$$QEAU?$default_delete@V?$typed_allocator@HV?$aligned_allocator@H@aligned_mem@detail@sycl@cl@@@detail@sycl@cl@@@1@AEAPEAV?$typed_allocator@HV?$aligned_allocator@H@aligned_mem@detail@sycl@cl@@@detail@sycl@cl@@@Z ; std::_Compressed_pair<std::default_delete<cl::sycl::detail::base_allocator>,cl::sycl::detail::base_allocator * __ptr64,1>::_Compressed_pair<std::default_delete<cl::sycl::detail::base_allocator>,cl::sycl::detail::base_allocator * __ptr64,1><std::default_delete<cl::sycl::detail::typed_allocator<int,cl::sycl::detail::aligned_mem::aligned_allocator<int> > >,cl::sycl::detail::typed_allocator<int,cl::sycl::detail::aligned_mem::aligned_allocator<int> > * __ptr64 & __ptr64>
PUBLIC	??$destroy@PEAD@?$allocator@D@std@@QEAAXPEAPEAD@Z ; std::allocator<char>::destroy<char * __ptr64>
PUBLIC	??$construct@PEADAEAPEAD@?$allocator@D@std@@QEAAXPEAPEADAEAPEAD@Z ; std::allocator<char>::construct<char * __ptr64,char * __ptr64 & __ptr64>
PUBLIC	??$forward@AEAPEAV?$typed_allocator@HV?$aligned_allocator@H@aligned_mem@detail@sycl@cl@@@detail@sycl@cl@@@std@@YAAEAPEAV?$typed_allocator@HV?$aligned_allocator@H@aligned_mem@detail@sycl@cl@@@detail@sycl@cl@@AEAPEAV1234@@Z ; std::forward<cl::sycl::detail::typed_allocator<int,cl::sycl::detail::aligned_mem::aligned_allocator<int> > * __ptr64 & __ptr64>
PUBLIC	??$destroy@U_Container_proxy@std@@@?$allocator@U_Container_proxy@std@@@std@@QEAAXPEAU_Container_proxy@1@@Z ; std::allocator<std::_Container_proxy>::destroy<std::_Container_proxy>
PUBLIC	??$construct@U_Container_proxy@std@@U12@@?$allocator@U_Container_proxy@std@@@std@@QEAAXPEAU_Container_proxy@1@$$QEAU21@@Z ; std::allocator<std::_Container_proxy>::construct<std::_Container_proxy,std::_Container_proxy>
PUBLIC	??$addressof@$$CBUNullDeleter@detail@sycl@cl@@@std@@YAPEBUNullDeleter@detail@sycl@cl@@AEBU1234@@Z ; std::addressof<cl::sycl::detail::NullDeleter const >
PUBLIC	??$?0AEAUNullDeleter@detail@sycl@cl@@AEAPEAX@?$_Compressed_pair@UNullDeleter@detail@sycl@cl@@PEAX$00@std@@QEAA@U_One_then_variadic_args_t@1@AEAUNullDeleter@detail@sycl@cl@@AEAPEAX@Z ; std::_Compressed_pair<cl::sycl::detail::NullDeleter,void * __ptr64,1>::_Compressed_pair<cl::sycl::detail::NullDeleter,void * __ptr64,1><cl::sycl::detail::NullDeleter & __ptr64,void * __ptr64 & __ptr64>
PUBLIC	??0?$_Func_base@XAEAVnd_item_base@detail@sycl@cl@@@std@@QEAA@XZ ; std::_Func_base<void,cl::sycl::detail::nd_item_base & __ptr64>::_Func_base<void,cl::sycl::detail::nd_item_base & __ptr64>
PUBLIC	??1?$_Func_base@XAEAVnd_item_base@detail@sycl@cl@@@std@@QEAA@XZ ; std::_Func_base<void,cl::sycl::detail::nd_item_base & __ptr64>::~_Func_base<void,cl::sycl::detail::nd_item_base & __ptr64>
PUBLIC	??$_Test_callable@V<lambda_39ab90f1c5f9e6f03c358ede9dc45e4d>@@@std@@YA_NAEBV<lambda_39ab90f1c5f9e6f03c358ede9dc45e4d>@@@Z ; std::_Test_callable<<lambda_39ab90f1c5f9e6f03c358ede9dc45e4d> >
PUBLIC	?deallocate@?$allocator@V?$_Func_impl@V<lambda_39ab90f1c5f9e6f03c358ede9dc45e4d>@@V?$allocator@H@std@@XVexception_list@sycl@cl@@@std@@@std@@QEAAXPEAV?$_Func_impl@V<lambda_39ab90f1c5f9e6f03c358ede9dc45e4d>@@V?$allocator@H@std@@XVexception_list@sycl@cl@@@2@_K@Z ; std::allocator<std::_Func_impl<<lambda_39ab90f1c5f9e6f03c358ede9dc45e4d>,std::allocator<int>,void,cl::sycl::exception_list> >::deallocate
PUBLIC	?deallocate@?$_Wrap_alloc@V?$allocator@V?$_Func_impl@V<lambda_39ab90f1c5f9e6f03c358ede9dc45e4d>@@V?$allocator@H@std@@XVexception_list@sycl@cl@@@std@@@std@@@std@@QEAAXPEAV?$_Func_impl@V<lambda_39ab90f1c5f9e6f03c358ede9dc45e4d>@@V?$allocator@H@std@@XVexception_list@sycl@cl@@@2@_K@Z ; std::_Wrap_alloc<std::allocator<std::_Func_impl<<lambda_39ab90f1c5f9e6f03c358ede9dc45e4d>,std::allocator<int>,void,cl::sycl::exception_list> > >::deallocate
PUBLIC	??$?0AEBV?$allocator@H@std@@@?$_Wrap_alloc@V?$allocator@V?$_Func_impl@V<lambda_39ab90f1c5f9e6f03c358ede9dc45e4d>@@V?$allocator@H@std@@XVexception_list@sycl@cl@@@std@@@std@@@std@@QEAA@AEBV?$allocator@H@1@@Z ; std::_Wrap_alloc<std::allocator<std::_Func_impl<<lambda_39ab90f1c5f9e6f03c358ede9dc45e4d>,std::allocator<int>,void,cl::sycl::exception_list> > >::_Wrap_alloc<std::allocator<std::_Func_impl<<lambda_39ab90f1c5f9e6f03c358ede9dc45e4d>,std::allocator<int>,void,cl::sycl::exception_list> > ><std::allocator<int> const & __ptr64>
PUBLIC	??1?$_Func_impl@V<lambda_39ab90f1c5f9e6f03c358ede9dc45e4d>@@V?$allocator@H@std@@XVexception_list@sycl@cl@@@std@@QEAA@XZ ; std::_Func_impl<<lambda_39ab90f1c5f9e6f03c358ede9dc45e4d>,std::allocator<int>,void,cl::sycl::exception_list>::~_Func_impl<<lambda_39ab90f1c5f9e6f03c358ede9dc45e4d>,std::allocator<int>,void,cl::sycl::exception_list>
PUBLIC	?_Copy@?$_Func_impl@V<lambda_39ab90f1c5f9e6f03c358ede9dc45e4d>@@V?$allocator@H@std@@XVexception_list@sycl@cl@@@std@@EEBAPEAV?$_Func_base@XVexception_list@sycl@cl@@@2@PEAX@Z ; std::_Func_impl<<lambda_39ab90f1c5f9e6f03c358ede9dc45e4d>,std::allocator<int>,void,cl::sycl::exception_list>::_Copy
PUBLIC	?_Move@?$_Func_impl@V<lambda_39ab90f1c5f9e6f03c358ede9dc45e4d>@@V?$allocator@H@std@@XVexception_list@sycl@cl@@@std@@EEAAPEAV?$_Func_base@XVexception_list@sycl@cl@@@2@PEAX@Z ; std::_Func_impl<<lambda_39ab90f1c5f9e6f03c358ede9dc45e4d>,std::allocator<int>,void,cl::sycl::exception_list>::_Move
PUBLIC	?_Do_call@?$_Func_impl@V<lambda_39ab90f1c5f9e6f03c358ede9dc45e4d>@@V?$allocator@H@std@@XVexception_list@sycl@cl@@@std@@EEAAX$$QEAVexception_list@sycl@cl@@@Z ; std::_Func_impl<<lambda_39ab90f1c5f9e6f03c358ede9dc45e4d>,std::allocator<int>,void,cl::sycl::exception_list>::_Do_call
PUBLIC	?_Target_type@?$_Func_impl@V<lambda_39ab90f1c5f9e6f03c358ede9dc45e4d>@@V?$allocator@H@std@@XVexception_list@sycl@cl@@@std@@EEBAAEBVtype_info@@XZ ; std::_Func_impl<<lambda_39ab90f1c5f9e6f03c358ede9dc45e4d>,std::allocator<int>,void,cl::sycl::exception_list>::_Target_type
PUBLIC	?_Get@?$_Func_impl@V<lambda_39ab90f1c5f9e6f03c358ede9dc45e4d>@@V?$allocator@H@std@@XVexception_list@sycl@cl@@@std@@EEBAPEBXXZ ; std::_Func_impl<<lambda_39ab90f1c5f9e6f03c358ede9dc45e4d>,std::allocator<int>,void,cl::sycl::exception_list>::_Get
PUBLIC	?_Delete_this@?$_Func_impl@V<lambda_39ab90f1c5f9e6f03c358ede9dc45e4d>@@V?$allocator@H@std@@XVexception_list@sycl@cl@@@std@@EEAAX_N@Z ; std::_Func_impl<<lambda_39ab90f1c5f9e6f03c358ede9dc45e4d>,std::allocator<int>,void,cl::sycl::exception_list>::_Delete_this
PUBLIC	?_Get_first@?$_Compressed_pair@V?$allocator@H@std@@V<lambda_39ab90f1c5f9e6f03c358ede9dc45e4d>@@$00@std@@QEAAAEAV?$allocator@H@2@XZ ; std::_Compressed_pair<std::allocator<int>,<lambda_39ab90f1c5f9e6f03c358ede9dc45e4d>,1>::_Get_first
PUBLIC	?_Get_first@?$_Compressed_pair@V?$allocator@H@std@@V<lambda_39ab90f1c5f9e6f03c358ede9dc45e4d>@@$00@std@@QEBAAEBV?$allocator@H@2@XZ ; std::_Compressed_pair<std::allocator<int>,<lambda_39ab90f1c5f9e6f03c358ede9dc45e4d>,1>::_Get_first
PUBLIC	?_Get_second@?$_Compressed_pair@V?$allocator@H@std@@V<lambda_39ab90f1c5f9e6f03c358ede9dc45e4d>@@$00@std@@QEAAAEAV<lambda_39ab90f1c5f9e6f03c358ede9dc45e4d>@@XZ ; std::_Compressed_pair<std::allocator<int>,<lambda_39ab90f1c5f9e6f03c358ede9dc45e4d>,1>::_Get_second
PUBLIC	?_Get_second@?$_Compressed_pair@V?$allocator@H@std@@V<lambda_39ab90f1c5f9e6f03c358ede9dc45e4d>@@$00@std@@QEBAAEBV<lambda_39ab90f1c5f9e6f03c358ede9dc45e4d>@@XZ ; std::_Compressed_pair<std::allocator<int>,<lambda_39ab90f1c5f9e6f03c358ede9dc45e4d>,1>::_Get_second
PUBLIC	?_Myax@?$_Func_impl@V<lambda_39ab90f1c5f9e6f03c358ede9dc45e4d>@@V?$allocator@H@std@@XVexception_list@sycl@cl@@@std@@AEAAAEAV?$allocator@H@2@XZ ; std::_Func_impl<<lambda_39ab90f1c5f9e6f03c358ede9dc45e4d>,std::allocator<int>,void,cl::sycl::exception_list>::_Myax
PUBLIC	?_Myax@?$_Func_impl@V<lambda_39ab90f1c5f9e6f03c358ede9dc45e4d>@@V?$allocator@H@std@@XVexception_list@sycl@cl@@@std@@AEBAAEBV?$allocator@H@2@XZ ; std::_Func_impl<<lambda_39ab90f1c5f9e6f03c358ede9dc45e4d>,std::allocator<int>,void,cl::sycl::exception_list>::_Myax
PUBLIC	?_Callee@?$_Func_impl@V<lambda_39ab90f1c5f9e6f03c358ede9dc45e4d>@@V?$allocator@H@std@@XVexception_list@sycl@cl@@@std@@AEAAAEAV<lambda_39ab90f1c5f9e6f03c358ede9dc45e4d>@@XZ ; std::_Func_impl<<lambda_39ab90f1c5f9e6f03c358ede9dc45e4d>,std::allocator<int>,void,cl::sycl::exception_list>::_Callee
PUBLIC	?_Callee@?$_Func_impl@V<lambda_39ab90f1c5f9e6f03c358ede9dc45e4d>@@V?$allocator@H@std@@XVexception_list@sycl@cl@@@std@@AEBAAEBV<lambda_39ab90f1c5f9e6f03c358ede9dc45e4d>@@XZ ; std::_Func_impl<<lambda_39ab90f1c5f9e6f03c358ede9dc45e4d>,std::allocator<int>,void,cl::sycl::exception_list>::_Callee
PUBLIC	??_G?$_Func_impl@V<lambda_39ab90f1c5f9e6f03c358ede9dc45e4d>@@V?$allocator@H@std@@XVexception_list@sycl@cl@@@std@@QEAAPEAXI@Z ; std::_Func_impl<<lambda_39ab90f1c5f9e6f03c358ede9dc45e4d>,std::allocator<int>,void,cl::sycl::exception_list>::`scalar deleting destructor'
PUBLIC	??$_Reset_impl@V<lambda_39ab90f1c5f9e6f03c358ede9dc45e4d>@@V?$allocator@H@std@@V?$_Func_impl@V<lambda_39ab90f1c5f9e6f03c358ede9dc45e4d>@@V?$allocator@H@std@@XVexception_list@sycl@cl@@@3@U?$_Wrap_alloc@V?$allocator@V?$_Func_impl@V<lambda_39ab90f1c5f9e6f03c358ede9dc45e4d>@@V?$allocator@H@std@@XVexception_list@sycl@cl@@@std@@@std@@@3@@?$_Func_class@XVexception_list@sycl@cl@@@std@@IEAAX$$QEAV<lambda_39ab90f1c5f9e6f03c358ede9dc45e4d>@@AEBV?$allocator@H@1@PEAV?$_Func_impl@V<lambda_39ab90f1c5f9e6f03c358ede9dc45e4d>@@V?$allocator@H@std@@XVexception_list@sycl@cl@@@1@AEAU?$_Wrap_alloc@V?$allocator@V?$_Func_impl@V<lambda_39ab90f1c5f9e6f03c358ede9dc45e4d>@@V?$allocator@H@std@@XVexception_list@sycl@cl@@@std@@@std@@@1@U?$integral_constant@_N$0A@@1@@Z ; std::_Func_class<void,cl::sycl::exception_list>::_Reset_impl<<lambda_39ab90f1c5f9e6f03c358ede9dc45e4d>,std::allocator<int>,std::_Func_impl<<lambda_39ab90f1c5f9e6f03c358ede9dc45e4d>,std::allocator<int>,void,cl::sycl::exception_list>,std::_Wrap_alloc<std::allocator<std::_Func_impl<<lambda_39ab90f1c5f9e6f03c358ede9dc45e4d>,std::allocator<int>,void,cl::sycl::exception_list> > > >
PUBLIC	??$?8DU?$char_traits@D@std@@V?$allocator@D@1@@std@@YA_NAEBV?$basic_string@DU?$char_traits@D@std@@V?$allocator@D@2@@0@PEBD@Z ; std::operator==<char,std::char_traits<char>,std::allocator<char> >
PUBLIC	??$move@AEAV<lambda_a7f33fec5b6c4de3460ce58d02d2d54d>@@@std@@YA$$QEAV<lambda_a7f33fec5b6c4de3460ce58d02d2d54d>@@AEAV1@@Z ; std::move<<lambda_a7f33fec5b6c4de3460ce58d02d2d54d> & __ptr64>
PUBLIC	??$_Reset@V<lambda_a7f33fec5b6c4de3460ce58d02d2d54d>@@@?$_Func_class@XAEAVnd_item_base@detail@sycl@cl@@@std@@IEAAX$$QEAV<lambda_a7f33fec5b6c4de3460ce58d02d2d54d>@@@Z ; std::_Func_class<void,cl::sycl::detail::nd_item_base & __ptr64>::_Reset<<lambda_a7f33fec5b6c4de3460ce58d02d2d54d> >
PUBLIC	??$forward@AEAUNullDeleter@detail@sycl@cl@@@std@@YAAEAUNullDeleter@detail@sycl@cl@@AEAU1234@@Z ; std::forward<cl::sycl::detail::NullDeleter & __ptr64>
PUBLIC	??$forward@AEAPEAX@std@@YAAEAPEAXAEAPEAX@Z	; std::forward<void * __ptr64 & __ptr64>
PUBLIC	??$?0AEAV?$allocator@H@std@@@?$_Wrap_alloc@V?$allocator@V?$_Func_impl@V<lambda_39ab90f1c5f9e6f03c358ede9dc45e4d>@@V?$allocator@H@std@@XVexception_list@sycl@cl@@@std@@@std@@@std@@QEAA@AEAV?$allocator@H@1@@Z ; std::_Wrap_alloc<std::allocator<std::_Func_impl<<lambda_39ab90f1c5f9e6f03c358ede9dc45e4d>,std::allocator<int>,void,cl::sycl::exception_list> > >::_Wrap_alloc<std::allocator<std::_Func_impl<<lambda_39ab90f1c5f9e6f03c358ede9dc45e4d>,std::allocator<int>,void,cl::sycl::exception_list> > ><std::allocator<int> & __ptr64>
PUBLIC	??$destroy@V?$_Func_impl@V<lambda_39ab90f1c5f9e6f03c358ede9dc45e4d>@@V?$allocator@H@std@@XVexception_list@sycl@cl@@@std@@@?$_Wrap_alloc@V?$allocator@V?$_Func_impl@V<lambda_39ab90f1c5f9e6f03c358ede9dc45e4d>@@V?$allocator@H@std@@XVexception_list@sycl@cl@@@std@@@std@@@std@@QEAAXPEAV?$_Func_impl@V<lambda_39ab90f1c5f9e6f03c358ede9dc45e4d>@@V?$allocator@H@std@@XVexception_list@sycl@cl@@@1@@Z ; std::_Wrap_alloc<std::allocator<std::_Func_impl<<lambda_39ab90f1c5f9e6f03c358ede9dc45e4d>,std::allocator<int>,void,cl::sycl::exception_list> > >::destroy<std::_Func_impl<<lambda_39ab90f1c5f9e6f03c358ede9dc45e4d>,std::allocator<int>,void,cl::sycl::exception_list> >
PUBLIC	??$addressof@$$CBV<lambda_39ab90f1c5f9e6f03c358ede9dc45e4d>@@@std@@YAPEBV<lambda_39ab90f1c5f9e6f03c358ede9dc45e4d>@@AEBV1@@Z ; std::addressof<<lambda_39ab90f1c5f9e6f03c358ede9dc45e4d> const >
PUBLIC	??$_Invoke_ret@XAEAV<lambda_39ab90f1c5f9e6f03c358ede9dc45e4d>@@Vexception_list@sycl@cl@@@std@@YAXU?$_Forced@X$00@0@AEAV<lambda_39ab90f1c5f9e6f03c358ede9dc45e4d>@@$$QEAVexception_list@sycl@cl@@@Z ; std::_Invoke_ret<void,<lambda_39ab90f1c5f9e6f03c358ede9dc45e4d> & __ptr64,cl::sycl::exception_list>
PUBLIC	??$move@AEAV?$allocator@H@std@@@std@@YA$$QEAV?$allocator@H@0@AEAV10@@Z ; std::move<std::allocator<int> & __ptr64>
PUBLIC	??$construct@V?$_Func_impl@V<lambda_39ab90f1c5f9e6f03c358ede9dc45e4d>@@V?$allocator@H@std@@XVexception_list@sycl@cl@@@std@@V<lambda_39ab90f1c5f9e6f03c358ede9dc45e4d>@@V?$allocator@H@2@@?$_Wrap_alloc@V?$allocator@V?$_Func_impl@V<lambda_39ab90f1c5f9e6f03c358ede9dc45e4d>@@V?$allocator@H@std@@XVexception_list@sycl@cl@@@std@@@std@@@std@@QEAAXPEAV?$_Func_impl@V<lambda_39ab90f1c5f9e6f03c358ede9dc45e4d>@@V?$allocator@H@std@@XVexception_list@sycl@cl@@@1@$$QEAV<lambda_39ab90f1c5f9e6f03c358ede9dc45e4d>@@$$QEAV?$allocator@H@1@@Z ; std::_Wrap_alloc<std::allocator<std::_Func_impl<<lambda_39ab90f1c5f9e6f03c358ede9dc45e4d>,std::allocator<int>,void,cl::sycl::exception_list> > >::construct<std::_Func_impl<<lambda_39ab90f1c5f9e6f03c358ede9dc45e4d>,std::allocator<int>,void,cl::sycl::exception_list>,<lambda_39ab90f1c5f9e6f03c358ede9dc45e4d>,std::allocator<int> >
PUBLIC	??$_Clone@X@?$_Func_impl@V<lambda_39ab90f1c5f9e6f03c358ede9dc45e4d>@@V?$allocator@H@std@@XVexception_list@sycl@cl@@@std@@AEBAPEAV?$_Func_base@XVexception_list@sycl@cl@@@1@PEAXU?$integral_constant@_N$0A@@1@@Z ; std::_Func_impl<<lambda_39ab90f1c5f9e6f03c358ede9dc45e4d>,std::allocator<int>,void,cl::sycl::exception_list>::_Clone<void>
PUBLIC	??$_Test_callable@V<lambda_39ab90f1c5f9e6f03c358ede9dc45e4d>@@@std@@YA_NAEBV<lambda_39ab90f1c5f9e6f03c358ede9dc45e4d>@@U?$integral_constant@_N$0A@@0@@Z ; std::_Test_callable<<lambda_39ab90f1c5f9e6f03c358ede9dc45e4d> >
PUBLIC	??$forward@AEBV?$allocator@H@std@@@std@@YAAEBV?$allocator@H@0@AEBV10@@Z ; std::forward<std::allocator<int> const & __ptr64>
PUBLIC	??$?0H@?$allocator@V?$_Func_impl@V<lambda_39ab90f1c5f9e6f03c358ede9dc45e4d>@@V?$allocator@H@std@@XVexception_list@sycl@cl@@@std@@@std@@QEAA@AEBV?$allocator@H@1@@Z ; std::allocator<std::_Func_impl<<lambda_39ab90f1c5f9e6f03c358ede9dc45e4d>,std::allocator<int>,void,cl::sycl::exception_list> >::allocator<std::_Func_impl<<lambda_39ab90f1c5f9e6f03c358ede9dc45e4d>,std::allocator<int>,void,cl::sycl::exception_list> ><int>
PUBLIC	??$construct@V?$_Func_impl@V<lambda_39ab90f1c5f9e6f03c358ede9dc45e4d>@@V?$allocator@H@std@@XVexception_list@sycl@cl@@@std@@V<lambda_39ab90f1c5f9e6f03c358ede9dc45e4d>@@AEBV?$allocator@H@2@@?$_Wrap_alloc@V?$allocator@V?$_Func_impl@V<lambda_39ab90f1c5f9e6f03c358ede9dc45e4d>@@V?$allocator@H@std@@XVexception_list@sycl@cl@@@std@@@std@@@std@@QEAAXPEAV?$_Func_impl@V<lambda_39ab90f1c5f9e6f03c358ede9dc45e4d>@@V?$allocator@H@std@@XVexception_list@sycl@cl@@@1@$$QEAV<lambda_39ab90f1c5f9e6f03c358ede9dc45e4d>@@AEBV?$allocator@H@1@@Z ; std::_Wrap_alloc<std::allocator<std::_Func_impl<<lambda_39ab90f1c5f9e6f03c358ede9dc45e4d>,std::allocator<int>,void,cl::sycl::exception_list> > >::construct<std::_Func_impl<<lambda_39ab90f1c5f9e6f03c358ede9dc45e4d>,std::allocator<int>,void,cl::sycl::exception_list>,<lambda_39ab90f1c5f9e6f03c358ede9dc45e4d>,std::allocator<int> const & __ptr64>
PUBLIC	??$forward@V<lambda_a7f33fec5b6c4de3460ce58d02d2d54d>@@@std@@YA$$QEAV<lambda_a7f33fec5b6c4de3460ce58d02d2d54d>@@AEAV1@@Z ; std::forward<<lambda_a7f33fec5b6c4de3460ce58d02d2d54d> >
PUBLIC	??$_Reset_alloc@V<lambda_a7f33fec5b6c4de3460ce58d02d2d54d>@@V?$allocator@H@std@@@?$_Func_class@XAEAVnd_item_base@detail@sycl@cl@@@std@@IEAAX$$QEAV<lambda_a7f33fec5b6c4de3460ce58d02d2d54d>@@AEBV?$allocator@H@1@@Z ; std::_Func_class<void,cl::sycl::detail::nd_item_base & __ptr64>::_Reset_alloc<<lambda_a7f33fec5b6c4de3460ce58d02d2d54d>,std::allocator<int> >
PUBLIC	??$forward@AEAV?$allocator@H@std@@@std@@YAAEAV?$allocator@H@0@AEAV10@@Z ; std::forward<std::allocator<int> & __ptr64>
PUBLIC	??$destroy@V?$_Func_impl@V<lambda_39ab90f1c5f9e6f03c358ede9dc45e4d>@@V?$allocator@H@std@@XVexception_list@sycl@cl@@@std@@@?$allocator_traits@V?$allocator@V?$_Func_impl@V<lambda_39ab90f1c5f9e6f03c358ede9dc45e4d>@@V?$allocator@H@std@@XVexception_list@sycl@cl@@@std@@@std@@@std@@SAXAEAV?$allocator@V?$_Func_impl@V<lambda_39ab90f1c5f9e6f03c358ede9dc45e4d>@@V?$allocator@H@std@@XVexception_list@sycl@cl@@@std@@@1@PEAV?$_Func_impl@V<lambda_39ab90f1c5f9e6f03c358ede9dc45e4d>@@V?$allocator@H@std@@XVexception_list@sycl@cl@@@1@@Z ; std::allocator_traits<std::allocator<std::_Func_impl<<lambda_39ab90f1c5f9e6f03c358ede9dc45e4d>,std::allocator<int>,void,cl::sycl::exception_list> > >::destroy<std::_Func_impl<<lambda_39ab90f1c5f9e6f03c358ede9dc45e4d>,std::allocator<int>,void,cl::sycl::exception_list> >
PUBLIC	??$forward@V?$allocator@H@std@@@std@@YA$$QEAV?$allocator@H@0@AEAV10@@Z ; std::forward<std::allocator<int> >
PUBLIC	??$construct@V?$_Func_impl@V<lambda_39ab90f1c5f9e6f03c358ede9dc45e4d>@@V?$allocator@H@std@@XVexception_list@sycl@cl@@@std@@V<lambda_39ab90f1c5f9e6f03c358ede9dc45e4d>@@V?$allocator@H@2@@?$allocator_traits@V?$allocator@V?$_Func_impl@V<lambda_39ab90f1c5f9e6f03c358ede9dc45e4d>@@V?$allocator@H@std@@XVexception_list@sycl@cl@@@std@@@std@@@std@@SAXAEAV?$allocator@V?$_Func_impl@V<lambda_39ab90f1c5f9e6f03c358ede9dc45e4d>@@V?$allocator@H@std@@XVexception_list@sycl@cl@@@std@@@1@PEAV?$_Func_impl@V<lambda_39ab90f1c5f9e6f03c358ede9dc45e4d>@@V?$allocator@H@std@@XVexception_list@sycl@cl@@@1@$$QEAV<lambda_39ab90f1c5f9e6f03c358ede9dc45e4d>@@$$QEAV?$allocator@H@1@@Z ; std::allocator_traits<std::allocator<std::_Func_impl<<lambda_39ab90f1c5f9e6f03c358ede9dc45e4d>,std::allocator<int>,void,cl::sycl::exception_list> > >::construct<std::_Func_impl<<lambda_39ab90f1c5f9e6f03c358ede9dc45e4d>,std::allocator<int>,void,cl::sycl::exception_list>,<lambda_39ab90f1c5f9e6f03c358ede9dc45e4d>,std::allocator<int> >
PUBLIC	??$construct@V?$_Func_impl@V<lambda_39ab90f1c5f9e6f03c358ede9dc45e4d>@@V?$allocator@H@std@@XVexception_list@sycl@cl@@@std@@AEBV<lambda_39ab90f1c5f9e6f03c358ede9dc45e4d>@@AEBV?$allocator@H@2@@?$_Wrap_alloc@V?$allocator@V?$_Func_impl@V<lambda_39ab90f1c5f9e6f03c358ede9dc45e4d>@@V?$allocator@H@std@@XVexception_list@sycl@cl@@@std@@@std@@@std@@QEAAXPEAV?$_Func_impl@V<lambda_39ab90f1c5f9e6f03c358ede9dc45e4d>@@V?$allocator@H@std@@XVexception_list@sycl@cl@@@1@AEBV<lambda_39ab90f1c5f9e6f03c358ede9dc45e4d>@@AEBV?$allocator@H@1@@Z ; std::_Wrap_alloc<std::allocator<std::_Func_impl<<lambda_39ab90f1c5f9e6f03c358ede9dc45e4d>,std::allocator<int>,void,cl::sycl::exception_list> > >::construct<std::_Func_impl<<lambda_39ab90f1c5f9e6f03c358ede9dc45e4d>,std::allocator<int>,void,cl::sycl::exception_list>,<lambda_39ab90f1c5f9e6f03c358ede9dc45e4d> const & __ptr64,std::allocator<int> const & __ptr64>
PUBLIC	??$construct@V?$_Func_impl@V<lambda_39ab90f1c5f9e6f03c358ede9dc45e4d>@@V?$allocator@H@std@@XVexception_list@sycl@cl@@@std@@V<lambda_39ab90f1c5f9e6f03c358ede9dc45e4d>@@AEBV?$allocator@H@2@@?$allocator_traits@V?$allocator@V?$_Func_impl@V<lambda_39ab90f1c5f9e6f03c358ede9dc45e4d>@@V?$allocator@H@std@@XVexception_list@sycl@cl@@@std@@@std@@@std@@SAXAEAV?$allocator@V?$_Func_impl@V<lambda_39ab90f1c5f9e6f03c358ede9dc45e4d>@@V?$allocator@H@std@@XVexception_list@sycl@cl@@@std@@@1@PEAV?$_Func_impl@V<lambda_39ab90f1c5f9e6f03c358ede9dc45e4d>@@V?$allocator@H@std@@XVexception_list@sycl@cl@@@1@$$QEAV<lambda_39ab90f1c5f9e6f03c358ede9dc45e4d>@@AEBV?$allocator@H@1@@Z ; std::allocator_traits<std::allocator<std::_Func_impl<<lambda_39ab90f1c5f9e6f03c358ede9dc45e4d>,std::allocator<int>,void,cl::sycl::exception_list> > >::construct<std::_Func_impl<<lambda_39ab90f1c5f9e6f03c358ede9dc45e4d>,std::allocator<int>,void,cl::sycl::exception_list>,<lambda_39ab90f1c5f9e6f03c358ede9dc45e4d>,std::allocator<int> const & __ptr64>
PUBLIC	??$_Test_callable@V<lambda_a7f33fec5b6c4de3460ce58d02d2d54d>@@@std@@YA_NAEBV<lambda_a7f33fec5b6c4de3460ce58d02d2d54d>@@@Z ; std::_Test_callable<<lambda_a7f33fec5b6c4de3460ce58d02d2d54d> >
PUBLIC	?deallocate@?$allocator@V?$_Func_impl@V<lambda_a7f33fec5b6c4de3460ce58d02d2d54d>@@V?$allocator@H@std@@XAEAVnd_item_base@detail@sycl@cl@@@std@@@std@@QEAAXPEAV?$_Func_impl@V<lambda_a7f33fec5b6c4de3460ce58d02d2d54d>@@V?$allocator@H@std@@XAEAVnd_item_base@detail@sycl@cl@@@2@_K@Z ; std::allocator<std::_Func_impl<<lambda_a7f33fec5b6c4de3460ce58d02d2d54d>,std::allocator<int>,void,cl::sycl::detail::nd_item_base & __ptr64> >::deallocate
PUBLIC	?allocate@?$allocator@V?$_Func_impl@V<lambda_a7f33fec5b6c4de3460ce58d02d2d54d>@@V?$allocator@H@std@@XAEAVnd_item_base@detail@sycl@cl@@@std@@@std@@QEAAPEAV?$_Func_impl@V<lambda_a7f33fec5b6c4de3460ce58d02d2d54d>@@V?$allocator@H@std@@XAEAVnd_item_base@detail@sycl@cl@@@2@_K@Z ; std::allocator<std::_Func_impl<<lambda_a7f33fec5b6c4de3460ce58d02d2d54d>,std::allocator<int>,void,cl::sycl::detail::nd_item_base & __ptr64> >::allocate
PUBLIC	?allocate@?$_Wrap_alloc@V?$allocator@V?$_Func_impl@V<lambda_a7f33fec5b6c4de3460ce58d02d2d54d>@@V?$allocator@H@std@@XAEAVnd_item_base@detail@sycl@cl@@@std@@@std@@@std@@QEAAPEAV?$_Func_impl@V<lambda_a7f33fec5b6c4de3460ce58d02d2d54d>@@V?$allocator@H@std@@XAEAVnd_item_base@detail@sycl@cl@@@2@_K@Z ; std::_Wrap_alloc<std::allocator<std::_Func_impl<<lambda_a7f33fec5b6c4de3460ce58d02d2d54d>,std::allocator<int>,void,cl::sycl::detail::nd_item_base & __ptr64> > >::allocate
PUBLIC	?deallocate@?$_Wrap_alloc@V?$allocator@V?$_Func_impl@V<lambda_a7f33fec5b6c4de3460ce58d02d2d54d>@@V?$allocator@H@std@@XAEAVnd_item_base@detail@sycl@cl@@@std@@@std@@@std@@QEAAXPEAV?$_Func_impl@V<lambda_a7f33fec5b6c4de3460ce58d02d2d54d>@@V?$allocator@H@std@@XAEAVnd_item_base@detail@sycl@cl@@@2@_K@Z ; std::_Wrap_alloc<std::allocator<std::_Func_impl<<lambda_a7f33fec5b6c4de3460ce58d02d2d54d>,std::allocator<int>,void,cl::sycl::detail::nd_item_base & __ptr64> > >::deallocate
PUBLIC	??$?0AEBV?$allocator@H@std@@@?$_Wrap_alloc@V?$allocator@V?$_Func_impl@V<lambda_a7f33fec5b6c4de3460ce58d02d2d54d>@@V?$allocator@H@std@@XAEAVnd_item_base@detail@sycl@cl@@@std@@@std@@@std@@QEAA@AEBV?$allocator@H@1@@Z ; std::_Wrap_alloc<std::allocator<std::_Func_impl<<lambda_a7f33fec5b6c4de3460ce58d02d2d54d>,std::allocator<int>,void,cl::sycl::detail::nd_item_base & __ptr64> > >::_Wrap_alloc<std::allocator<std::_Func_impl<<lambda_a7f33fec5b6c4de3460ce58d02d2d54d>,std::allocator<int>,void,cl::sycl::detail::nd_item_base & __ptr64> > ><std::allocator<int> const & __ptr64>
PUBLIC	??1?$_Func_impl@V<lambda_a7f33fec5b6c4de3460ce58d02d2d54d>@@V?$allocator@H@std@@XAEAVnd_item_base@detail@sycl@cl@@@std@@QEAA@XZ ; std::_Func_impl<<lambda_a7f33fec5b6c4de3460ce58d02d2d54d>,std::allocator<int>,void,cl::sycl::detail::nd_item_base & __ptr64>::~_Func_impl<<lambda_a7f33fec5b6c4de3460ce58d02d2d54d>,std::allocator<int>,void,cl::sycl::detail::nd_item_base & __ptr64>
PUBLIC	?_Copy@?$_Func_impl@V<lambda_a7f33fec5b6c4de3460ce58d02d2d54d>@@V?$allocator@H@std@@XAEAVnd_item_base@detail@sycl@cl@@@std@@EEBAPEAV?$_Func_base@XAEAVnd_item_base@detail@sycl@cl@@@2@PEAX@Z ; std::_Func_impl<<lambda_a7f33fec5b6c4de3460ce58d02d2d54d>,std::allocator<int>,void,cl::sycl::detail::nd_item_base & __ptr64>::_Copy
PUBLIC	?_Move@?$_Func_impl@V<lambda_a7f33fec5b6c4de3460ce58d02d2d54d>@@V?$allocator@H@std@@XAEAVnd_item_base@detail@sycl@cl@@@std@@EEAAPEAV?$_Func_base@XAEAVnd_item_base@detail@sycl@cl@@@2@PEAX@Z ; std::_Func_impl<<lambda_a7f33fec5b6c4de3460ce58d02d2d54d>,std::allocator<int>,void,cl::sycl::detail::nd_item_base & __ptr64>::_Move
PUBLIC	?_Do_call@?$_Func_impl@V<lambda_a7f33fec5b6c4de3460ce58d02d2d54d>@@V?$allocator@H@std@@XAEAVnd_item_base@detail@sycl@cl@@@std@@EEAAXAEAVnd_item_base@detail@sycl@cl@@@Z ; std::_Func_impl<<lambda_a7f33fec5b6c4de3460ce58d02d2d54d>,std::allocator<int>,void,cl::sycl::detail::nd_item_base & __ptr64>::_Do_call
PUBLIC	?_Target_type@?$_Func_impl@V<lambda_a7f33fec5b6c4de3460ce58d02d2d54d>@@V?$allocator@H@std@@XAEAVnd_item_base@detail@sycl@cl@@@std@@EEBAAEBVtype_info@@XZ ; std::_Func_impl<<lambda_a7f33fec5b6c4de3460ce58d02d2d54d>,std::allocator<int>,void,cl::sycl::detail::nd_item_base & __ptr64>::_Target_type
PUBLIC	?_Get@?$_Func_impl@V<lambda_a7f33fec5b6c4de3460ce58d02d2d54d>@@V?$allocator@H@std@@XAEAVnd_item_base@detail@sycl@cl@@@std@@EEBAPEBXXZ ; std::_Func_impl<<lambda_a7f33fec5b6c4de3460ce58d02d2d54d>,std::allocator<int>,void,cl::sycl::detail::nd_item_base & __ptr64>::_Get
PUBLIC	?_Delete_this@?$_Func_impl@V<lambda_a7f33fec5b6c4de3460ce58d02d2d54d>@@V?$allocator@H@std@@XAEAVnd_item_base@detail@sycl@cl@@@std@@EEAAX_N@Z ; std::_Func_impl<<lambda_a7f33fec5b6c4de3460ce58d02d2d54d>,std::allocator<int>,void,cl::sycl::detail::nd_item_base & __ptr64>::_Delete_this
PUBLIC	?_Get_first@?$_Compressed_pair@V?$allocator@H@std@@V<lambda_a7f33fec5b6c4de3460ce58d02d2d54d>@@$00@std@@QEAAAEAV?$allocator@H@2@XZ ; std::_Compressed_pair<std::allocator<int>,<lambda_a7f33fec5b6c4de3460ce58d02d2d54d>,1>::_Get_first
PUBLIC	?_Get_first@?$_Compressed_pair@V?$allocator@H@std@@V<lambda_a7f33fec5b6c4de3460ce58d02d2d54d>@@$00@std@@QEBAAEBV?$allocator@H@2@XZ ; std::_Compressed_pair<std::allocator<int>,<lambda_a7f33fec5b6c4de3460ce58d02d2d54d>,1>::_Get_first
PUBLIC	?_Get_second@?$_Compressed_pair@V?$allocator@H@std@@V<lambda_a7f33fec5b6c4de3460ce58d02d2d54d>@@$00@std@@QEAAAEAV<lambda_a7f33fec5b6c4de3460ce58d02d2d54d>@@XZ ; std::_Compressed_pair<std::allocator<int>,<lambda_a7f33fec5b6c4de3460ce58d02d2d54d>,1>::_Get_second
PUBLIC	?_Get_second@?$_Compressed_pair@V?$allocator@H@std@@V<lambda_a7f33fec5b6c4de3460ce58d02d2d54d>@@$00@std@@QEBAAEBV<lambda_a7f33fec5b6c4de3460ce58d02d2d54d>@@XZ ; std::_Compressed_pair<std::allocator<int>,<lambda_a7f33fec5b6c4de3460ce58d02d2d54d>,1>::_Get_second
PUBLIC	??1?$_Compressed_pair@V?$allocator@H@std@@V<lambda_a7f33fec5b6c4de3460ce58d02d2d54d>@@$00@std@@QEAA@XZ ; std::_Compressed_pair<std::allocator<int>,<lambda_a7f33fec5b6c4de3460ce58d02d2d54d>,1>::~_Compressed_pair<std::allocator<int>,<lambda_a7f33fec5b6c4de3460ce58d02d2d54d>,1>
PUBLIC	?_Myax@?$_Func_impl@V<lambda_a7f33fec5b6c4de3460ce58d02d2d54d>@@V?$allocator@H@std@@XAEAVnd_item_base@detail@sycl@cl@@@std@@AEAAAEAV?$allocator@H@2@XZ ; std::_Func_impl<<lambda_a7f33fec5b6c4de3460ce58d02d2d54d>,std::allocator<int>,void,cl::sycl::detail::nd_item_base & __ptr64>::_Myax
PUBLIC	?_Myax@?$_Func_impl@V<lambda_a7f33fec5b6c4de3460ce58d02d2d54d>@@V?$allocator@H@std@@XAEAVnd_item_base@detail@sycl@cl@@@std@@AEBAAEBV?$allocator@H@2@XZ ; std::_Func_impl<<lambda_a7f33fec5b6c4de3460ce58d02d2d54d>,std::allocator<int>,void,cl::sycl::detail::nd_item_base & __ptr64>::_Myax
PUBLIC	?_Callee@?$_Func_impl@V<lambda_a7f33fec5b6c4de3460ce58d02d2d54d>@@V?$allocator@H@std@@XAEAVnd_item_base@detail@sycl@cl@@@std@@AEAAAEAV<lambda_a7f33fec5b6c4de3460ce58d02d2d54d>@@XZ ; std::_Func_impl<<lambda_a7f33fec5b6c4de3460ce58d02d2d54d>,std::allocator<int>,void,cl::sycl::detail::nd_item_base & __ptr64>::_Callee
PUBLIC	?_Callee@?$_Func_impl@V<lambda_a7f33fec5b6c4de3460ce58d02d2d54d>@@V?$allocator@H@std@@XAEAVnd_item_base@detail@sycl@cl@@@std@@AEBAAEBV<lambda_a7f33fec5b6c4de3460ce58d02d2d54d>@@XZ ; std::_Func_impl<<lambda_a7f33fec5b6c4de3460ce58d02d2d54d>,std::allocator<int>,void,cl::sycl::detail::nd_item_base & __ptr64>::_Callee
PUBLIC	??_G?$_Func_impl@V<lambda_a7f33fec5b6c4de3460ce58d02d2d54d>@@V?$allocator@H@std@@XAEAVnd_item_base@detail@sycl@cl@@@std@@QEAAPEAXI@Z ; std::_Func_impl<<lambda_a7f33fec5b6c4de3460ce58d02d2d54d>,std::allocator<int>,void,cl::sycl::detail::nd_item_base & __ptr64>::`scalar deleting destructor'
PUBLIC	??$_Reset_impl@V<lambda_a7f33fec5b6c4de3460ce58d02d2d54d>@@V?$allocator@H@std@@V?$_Func_impl@V<lambda_a7f33fec5b6c4de3460ce58d02d2d54d>@@V?$allocator@H@std@@XAEAVnd_item_base@detail@sycl@cl@@@3@U?$_Wrap_alloc@V?$allocator@V?$_Func_impl@V<lambda_a7f33fec5b6c4de3460ce58d02d2d54d>@@V?$allocator@H@std@@XAEAVnd_item_base@detail@sycl@cl@@@std@@@std@@@3@@?$_Func_class@XAEAVnd_item_base@detail@sycl@cl@@@std@@IEAAX$$QEAV<lambda_a7f33fec5b6c4de3460ce58d02d2d54d>@@AEBV?$allocator@H@1@PEAV?$_Func_impl@V<lambda_a7f33fec5b6c4de3460ce58d02d2d54d>@@V?$allocator@H@std@@XAEAVnd_item_base@detail@sycl@cl@@@1@AEAU?$_Wrap_alloc@V?$allocator@V?$_Func_impl@V<lambda_a7f33fec5b6c4de3460ce58d02d2d54d>@@V?$allocator@H@std@@XAEAVnd_item_base@detail@sycl@cl@@@std@@@std@@@1@U?$integral_constant@_N$00@1@@Z ; std::_Func_class<void,cl::sycl::detail::nd_item_base & __ptr64>::_Reset_impl<<lambda_a7f33fec5b6c4de3460ce58d02d2d54d>,std::allocator<int>,std::_Func_impl<<lambda_a7f33fec5b6c4de3460ce58d02d2d54d>,std::allocator<int>,void,cl::sycl::detail::nd_item_base & __ptr64>,std::_Wrap_alloc<std::allocator<std::_Func_impl<<lambda_a7f33fec5b6c4de3460ce58d02d2d54d>,std::allocator<int>,void,cl::sycl::detail::nd_item_base & __ptr64> > > >
PUBLIC	??$destroy@V?$_Func_impl@V<lambda_39ab90f1c5f9e6f03c358ede9dc45e4d>@@V?$allocator@H@std@@XVexception_list@sycl@cl@@@std@@@?$allocator@V?$_Func_impl@V<lambda_39ab90f1c5f9e6f03c358ede9dc45e4d>@@V?$allocator@H@std@@XVexception_list@sycl@cl@@@std@@@std@@QEAAXPEAV?$_Func_impl@V<lambda_39ab90f1c5f9e6f03c358ede9dc45e4d>@@V?$allocator@H@std@@XVexception_list@sycl@cl@@@1@@Z ; std::allocator<std::_Func_impl<<lambda_39ab90f1c5f9e6f03c358ede9dc45e4d>,std::allocator<int>,void,cl::sycl::exception_list> >::destroy<std::_Func_impl<<lambda_39ab90f1c5f9e6f03c358ede9dc45e4d>,std::allocator<int>,void,cl::sycl::exception_list> >
PUBLIC	??$construct@V?$_Func_impl@V<lambda_39ab90f1c5f9e6f03c358ede9dc45e4d>@@V?$allocator@H@std@@XVexception_list@sycl@cl@@@std@@V<lambda_39ab90f1c5f9e6f03c358ede9dc45e4d>@@V?$allocator@H@2@@?$allocator@V?$_Func_impl@V<lambda_39ab90f1c5f9e6f03c358ede9dc45e4d>@@V?$allocator@H@std@@XVexception_list@sycl@cl@@@std@@@std@@QEAAXPEAV?$_Func_impl@V<lambda_39ab90f1c5f9e6f03c358ede9dc45e4d>@@V?$allocator@H@std@@XVexception_list@sycl@cl@@@1@$$QEAV<lambda_39ab90f1c5f9e6f03c358ede9dc45e4d>@@$$QEAV?$allocator@H@1@@Z ; std::allocator<std::_Func_impl<<lambda_39ab90f1c5f9e6f03c358ede9dc45e4d>,std::allocator<int>,void,cl::sycl::exception_list> >::construct<std::_Func_impl<<lambda_39ab90f1c5f9e6f03c358ede9dc45e4d>,std::allocator<int>,void,cl::sycl::exception_list>,<lambda_39ab90f1c5f9e6f03c358ede9dc45e4d>,std::allocator<int> >
PUBLIC	??$forward@AEBV<lambda_39ab90f1c5f9e6f03c358ede9dc45e4d>@@@std@@YAAEBV<lambda_39ab90f1c5f9e6f03c358ede9dc45e4d>@@AEBV1@@Z ; std::forward<<lambda_39ab90f1c5f9e6f03c358ede9dc45e4d> const & __ptr64>
PUBLIC	??$construct@V?$_Func_impl@V<lambda_39ab90f1c5f9e6f03c358ede9dc45e4d>@@V?$allocator@H@std@@XVexception_list@sycl@cl@@@std@@AEBV<lambda_39ab90f1c5f9e6f03c358ede9dc45e4d>@@AEBV?$allocator@H@2@@?$allocator_traits@V?$allocator@V?$_Func_impl@V<lambda_39ab90f1c5f9e6f03c358ede9dc45e4d>@@V?$allocator@H@std@@XVexception_list@sycl@cl@@@std@@@std@@@std@@SAXAEAV?$allocator@V?$_Func_impl@V<lambda_39ab90f1c5f9e6f03c358ede9dc45e4d>@@V?$allocator@H@std@@XVexception_list@sycl@cl@@@std@@@1@PEAV?$_Func_impl@V<lambda_39ab90f1c5f9e6f03c358ede9dc45e4d>@@V?$allocator@H@std@@XVexception_list@sycl@cl@@@1@AEBV<lambda_39ab90f1c5f9e6f03c358ede9dc45e4d>@@AEBV?$allocator@H@1@@Z ; std::allocator_traits<std::allocator<std::_Func_impl<<lambda_39ab90f1c5f9e6f03c358ede9dc45e4d>,std::allocator<int>,void,cl::sycl::exception_list> > >::construct<std::_Func_impl<<lambda_39ab90f1c5f9e6f03c358ede9dc45e4d>,std::allocator<int>,void,cl::sycl::exception_list>,<lambda_39ab90f1c5f9e6f03c358ede9dc45e4d> const & __ptr64,std::allocator<int> const & __ptr64>
PUBLIC	??$?0AEAV?$allocator@H@std@@@?$_Wrap_alloc@V?$allocator@V?$_Func_impl@V<lambda_a7f33fec5b6c4de3460ce58d02d2d54d>@@V?$allocator@H@std@@XAEAVnd_item_base@detail@sycl@cl@@@std@@@std@@@std@@QEAA@AEAV?$allocator@H@1@@Z ; std::_Wrap_alloc<std::allocator<std::_Func_impl<<lambda_a7f33fec5b6c4de3460ce58d02d2d54d>,std::allocator<int>,void,cl::sycl::detail::nd_item_base & __ptr64> > >::_Wrap_alloc<std::allocator<std::_Func_impl<<lambda_a7f33fec5b6c4de3460ce58d02d2d54d>,std::allocator<int>,void,cl::sycl::detail::nd_item_base & __ptr64> > ><std::allocator<int> & __ptr64>
PUBLIC	??$destroy@V?$_Func_impl@V<lambda_a7f33fec5b6c4de3460ce58d02d2d54d>@@V?$allocator@H@std@@XAEAVnd_item_base@detail@sycl@cl@@@std@@@?$_Wrap_alloc@V?$allocator@V?$_Func_impl@V<lambda_a7f33fec5b6c4de3460ce58d02d2d54d>@@V?$allocator@H@std@@XAEAVnd_item_base@detail@sycl@cl@@@std@@@std@@@std@@QEAAXPEAV?$_Func_impl@V<lambda_a7f33fec5b6c4de3460ce58d02d2d54d>@@V?$allocator@H@std@@XAEAVnd_item_base@detail@sycl@cl@@@1@@Z ; std::_Wrap_alloc<std::allocator<std::_Func_impl<<lambda_a7f33fec5b6c4de3460ce58d02d2d54d>,std::allocator<int>,void,cl::sycl::detail::nd_item_base & __ptr64> > >::destroy<std::_Func_impl<<lambda_a7f33fec5b6c4de3460ce58d02d2d54d>,std::allocator<int>,void,cl::sycl::detail::nd_item_base & __ptr64> >
PUBLIC	??$addressof@$$CBV<lambda_a7f33fec5b6c4de3460ce58d02d2d54d>@@@std@@YAPEBV<lambda_a7f33fec5b6c4de3460ce58d02d2d54d>@@AEBV1@@Z ; std::addressof<<lambda_a7f33fec5b6c4de3460ce58d02d2d54d> const >
PUBLIC	??$_Invoke_ret@XAEAV<lambda_a7f33fec5b6c4de3460ce58d02d2d54d>@@AEAVnd_item_base@detail@sycl@cl@@@std@@YAXU?$_Forced@X$00@0@AEAV<lambda_a7f33fec5b6c4de3460ce58d02d2d54d>@@AEAVnd_item_base@detail@sycl@cl@@@Z ; std::_Invoke_ret<void,<lambda_a7f33fec5b6c4de3460ce58d02d2d54d> & __ptr64,cl::sycl::detail::nd_item_base & __ptr64>
PUBLIC	??$construct@V?$_Func_impl@V<lambda_a7f33fec5b6c4de3460ce58d02d2d54d>@@V?$allocator@H@std@@XAEAVnd_item_base@detail@sycl@cl@@@std@@V<lambda_a7f33fec5b6c4de3460ce58d02d2d54d>@@V?$allocator@H@2@@?$_Wrap_alloc@V?$allocator@V?$_Func_impl@V<lambda_a7f33fec5b6c4de3460ce58d02d2d54d>@@V?$allocator@H@std@@XAEAVnd_item_base@detail@sycl@cl@@@std@@@std@@@std@@QEAAXPEAV?$_Func_impl@V<lambda_a7f33fec5b6c4de3460ce58d02d2d54d>@@V?$allocator@H@std@@XAEAVnd_item_base@detail@sycl@cl@@@1@$$QEAV<lambda_a7f33fec5b6c4de3460ce58d02d2d54d>@@$$QEAV?$allocator@H@1@@Z ; std::_Wrap_alloc<std::allocator<std::_Func_impl<<lambda_a7f33fec5b6c4de3460ce58d02d2d54d>,std::allocator<int>,void,cl::sycl::detail::nd_item_base & __ptr64> > >::construct<std::_Func_impl<<lambda_a7f33fec5b6c4de3460ce58d02d2d54d>,std::allocator<int>,void,cl::sycl::detail::nd_item_base & __ptr64>,<lambda_a7f33fec5b6c4de3460ce58d02d2d54d>,std::allocator<int> >
PUBLIC	??$_Clone@X@?$_Func_impl@V<lambda_a7f33fec5b6c4de3460ce58d02d2d54d>@@V?$allocator@H@std@@XAEAVnd_item_base@detail@sycl@cl@@@std@@AEBAPEAV?$_Func_base@XAEAVnd_item_base@detail@sycl@cl@@@1@PEAXU?$integral_constant@_N$00@1@@Z ; std::_Func_impl<<lambda_a7f33fec5b6c4de3460ce58d02d2d54d>,std::allocator<int>,void,cl::sycl::detail::nd_item_base & __ptr64>::_Clone<void>
PUBLIC	??$construct@V?$_Func_impl@V<lambda_39ab90f1c5f9e6f03c358ede9dc45e4d>@@V?$allocator@H@std@@XVexception_list@sycl@cl@@@std@@V<lambda_39ab90f1c5f9e6f03c358ede9dc45e4d>@@AEBV?$allocator@H@2@@?$allocator@V?$_Func_impl@V<lambda_39ab90f1c5f9e6f03c358ede9dc45e4d>@@V?$allocator@H@std@@XVexception_list@sycl@cl@@@std@@@std@@QEAAXPEAV?$_Func_impl@V<lambda_39ab90f1c5f9e6f03c358ede9dc45e4d>@@V?$allocator@H@std@@XVexception_list@sycl@cl@@@1@$$QEAV<lambda_39ab90f1c5f9e6f03c358ede9dc45e4d>@@AEBV?$allocator@H@1@@Z ; std::allocator<std::_Func_impl<<lambda_39ab90f1c5f9e6f03c358ede9dc45e4d>,std::allocator<int>,void,cl::sycl::exception_list> >::construct<std::_Func_impl<<lambda_39ab90f1c5f9e6f03c358ede9dc45e4d>,std::allocator<int>,void,cl::sycl::exception_list>,<lambda_39ab90f1c5f9e6f03c358ede9dc45e4d>,std::allocator<int> const & __ptr64>
PUBLIC	??$_Test_callable@V<lambda_a7f33fec5b6c4de3460ce58d02d2d54d>@@@std@@YA_NAEBV<lambda_a7f33fec5b6c4de3460ce58d02d2d54d>@@U?$integral_constant@_N$0A@@0@@Z ; std::_Test_callable<<lambda_a7f33fec5b6c4de3460ce58d02d2d54d> >
PUBLIC	??$?0H@?$allocator@V?$_Func_impl@V<lambda_a7f33fec5b6c4de3460ce58d02d2d54d>@@V?$allocator@H@std@@XAEAVnd_item_base@detail@sycl@cl@@@std@@@std@@QEAA@AEBV?$allocator@H@1@@Z ; std::allocator<std::_Func_impl<<lambda_a7f33fec5b6c4de3460ce58d02d2d54d>,std::allocator<int>,void,cl::sycl::detail::nd_item_base & __ptr64> >::allocator<std::_Func_impl<<lambda_a7f33fec5b6c4de3460ce58d02d2d54d>,std::allocator<int>,void,cl::sycl::detail::nd_item_base & __ptr64> ><int>
PUBLIC	??$construct@V?$_Func_impl@V<lambda_a7f33fec5b6c4de3460ce58d02d2d54d>@@V?$allocator@H@std@@XAEAVnd_item_base@detail@sycl@cl@@@std@@V<lambda_a7f33fec5b6c4de3460ce58d02d2d54d>@@AEBV?$allocator@H@2@@?$_Wrap_alloc@V?$allocator@V?$_Func_impl@V<lambda_a7f33fec5b6c4de3460ce58d02d2d54d>@@V?$allocator@H@std@@XAEAVnd_item_base@detail@sycl@cl@@@std@@@std@@@std@@QEAAXPEAV?$_Func_impl@V<lambda_a7f33fec5b6c4de3460ce58d02d2d54d>@@V?$allocator@H@std@@XAEAVnd_item_base@detail@sycl@cl@@@1@$$QEAV<lambda_a7f33fec5b6c4de3460ce58d02d2d54d>@@AEBV?$allocator@H@1@@Z ; std::_Wrap_alloc<std::allocator<std::_Func_impl<<lambda_a7f33fec5b6c4de3460ce58d02d2d54d>,std::allocator<int>,void,cl::sycl::detail::nd_item_base & __ptr64> > >::construct<std::_Func_impl<<lambda_a7f33fec5b6c4de3460ce58d02d2d54d>,std::allocator<int>,void,cl::sycl::detail::nd_item_base & __ptr64>,<lambda_a7f33fec5b6c4de3460ce58d02d2d54d>,std::allocator<int> const & __ptr64>
PUBLIC	??$?0V<lambda_39ab90f1c5f9e6f03c358ede9dc45e4d>@@V?$allocator@H@std@@@?$_Func_impl@V<lambda_39ab90f1c5f9e6f03c358ede9dc45e4d>@@V?$allocator@H@std@@XVexception_list@sycl@cl@@@std@@QEAA@$$QEAV<lambda_39ab90f1c5f9e6f03c358ede9dc45e4d>@@$$QEAV?$allocator@H@1@@Z ; std::_Func_impl<<lambda_39ab90f1c5f9e6f03c358ede9dc45e4d>,std::allocator<int>,void,cl::sycl::exception_list>::_Func_impl<<lambda_39ab90f1c5f9e6f03c358ede9dc45e4d>,std::allocator<int>,void,cl::sycl::exception_list><<lambda_39ab90f1c5f9e6f03c358ede9dc45e4d>,std::allocator<int> >
PUBLIC	??$construct@V?$_Func_impl@V<lambda_39ab90f1c5f9e6f03c358ede9dc45e4d>@@V?$allocator@H@std@@XVexception_list@sycl@cl@@@std@@AEBV<lambda_39ab90f1c5f9e6f03c358ede9dc45e4d>@@AEBV?$allocator@H@2@@?$allocator@V?$_Func_impl@V<lambda_39ab90f1c5f9e6f03c358ede9dc45e4d>@@V?$allocator@H@std@@XVexception_list@sycl@cl@@@std@@@std@@QEAAXPEAV?$_Func_impl@V<lambda_39ab90f1c5f9e6f03c358ede9dc45e4d>@@V?$allocator@H@std@@XVexception_list@sycl@cl@@@1@AEBV<lambda_39ab90f1c5f9e6f03c358ede9dc45e4d>@@AEBV?$allocator@H@1@@Z ; std::allocator<std::_Func_impl<<lambda_39ab90f1c5f9e6f03c358ede9dc45e4d>,std::allocator<int>,void,cl::sycl::exception_list> >::construct<std::_Func_impl<<lambda_39ab90f1c5f9e6f03c358ede9dc45e4d>,std::allocator<int>,void,cl::sycl::exception_list>,<lambda_39ab90f1c5f9e6f03c358ede9dc45e4d> const & __ptr64,std::allocator<int> const & __ptr64>
PUBLIC	??$destroy@V?$_Func_impl@V<lambda_a7f33fec5b6c4de3460ce58d02d2d54d>@@V?$allocator@H@std@@XAEAVnd_item_base@detail@sycl@cl@@@std@@@?$allocator_traits@V?$allocator@V?$_Func_impl@V<lambda_a7f33fec5b6c4de3460ce58d02d2d54d>@@V?$allocator@H@std@@XAEAVnd_item_base@detail@sycl@cl@@@std@@@std@@@std@@SAXAEAV?$allocator@V?$_Func_impl@V<lambda_a7f33fec5b6c4de3460ce58d02d2d54d>@@V?$allocator@H@std@@XAEAVnd_item_base@detail@sycl@cl@@@std@@@1@PEAV?$_Func_impl@V<lambda_a7f33fec5b6c4de3460ce58d02d2d54d>@@V?$allocator@H@std@@XAEAVnd_item_base@detail@sycl@cl@@@1@@Z ; std::allocator_traits<std::allocator<std::_Func_impl<<lambda_a7f33fec5b6c4de3460ce58d02d2d54d>,std::allocator<int>,void,cl::sycl::detail::nd_item_base & __ptr64> > >::destroy<std::_Func_impl<<lambda_a7f33fec5b6c4de3460ce58d02d2d54d>,std::allocator<int>,void,cl::sycl::detail::nd_item_base & __ptr64> >
PUBLIC	??$construct@V?$_Func_impl@V<lambda_a7f33fec5b6c4de3460ce58d02d2d54d>@@V?$allocator@H@std@@XAEAVnd_item_base@detail@sycl@cl@@@std@@V<lambda_a7f33fec5b6c4de3460ce58d02d2d54d>@@V?$allocator@H@2@@?$allocator_traits@V?$allocator@V?$_Func_impl@V<lambda_a7f33fec5b6c4de3460ce58d02d2d54d>@@V?$allocator@H@std@@XAEAVnd_item_base@detail@sycl@cl@@@std@@@std@@@std@@SAXAEAV?$allocator@V?$_Func_impl@V<lambda_a7f33fec5b6c4de3460ce58d02d2d54d>@@V?$allocator@H@std@@XAEAVnd_item_base@detail@sycl@cl@@@std@@@1@PEAV?$_Func_impl@V<lambda_a7f33fec5b6c4de3460ce58d02d2d54d>@@V?$allocator@H@std@@XAEAVnd_item_base@detail@sycl@cl@@@1@$$QEAV<lambda_a7f33fec5b6c4de3460ce58d02d2d54d>@@$$QEAV?$allocator@H@1@@Z ; std::allocator_traits<std::allocator<std::_Func_impl<<lambda_a7f33fec5b6c4de3460ce58d02d2d54d>,std::allocator<int>,void,cl::sycl::detail::nd_item_base & __ptr64> > >::construct<std::_Func_impl<<lambda_a7f33fec5b6c4de3460ce58d02d2d54d>,std::allocator<int>,void,cl::sycl::detail::nd_item_base & __ptr64>,<lambda_a7f33fec5b6c4de3460ce58d02d2d54d>,std::allocator<int> >
PUBLIC	??$construct@V?$_Func_impl@V<lambda_a7f33fec5b6c4de3460ce58d02d2d54d>@@V?$allocator@H@std@@XAEAVnd_item_base@detail@sycl@cl@@@std@@AEBV<lambda_a7f33fec5b6c4de3460ce58d02d2d54d>@@AEBV?$allocator@H@2@@?$_Wrap_alloc@V?$allocator@V?$_Func_impl@V<lambda_a7f33fec5b6c4de3460ce58d02d2d54d>@@V?$allocator@H@std@@XAEAVnd_item_base@detail@sycl@cl@@@std@@@std@@@std@@QEAAXPEAV?$_Func_impl@V<lambda_a7f33fec5b6c4de3460ce58d02d2d54d>@@V?$allocator@H@std@@XAEAVnd_item_base@detail@sycl@cl@@@1@AEBV<lambda_a7f33fec5b6c4de3460ce58d02d2d54d>@@AEBV?$allocator@H@1@@Z ; std::_Wrap_alloc<std::allocator<std::_Func_impl<<lambda_a7f33fec5b6c4de3460ce58d02d2d54d>,std::allocator<int>,void,cl::sycl::detail::nd_item_base & __ptr64> > >::construct<std::_Func_impl<<lambda_a7f33fec5b6c4de3460ce58d02d2d54d>,std::allocator<int>,void,cl::sycl::detail::nd_item_base & __ptr64>,<lambda_a7f33fec5b6c4de3460ce58d02d2d54d> const & __ptr64,std::allocator<int> const & __ptr64>
PUBLIC	??$?0V<lambda_39ab90f1c5f9e6f03c358ede9dc45e4d>@@AEBV?$allocator@H@std@@@?$_Func_impl@V<lambda_39ab90f1c5f9e6f03c358ede9dc45e4d>@@V?$allocator@H@std@@XVexception_list@sycl@cl@@@std@@QEAA@$$QEAV<lambda_39ab90f1c5f9e6f03c358ede9dc45e4d>@@AEBV?$allocator@H@1@@Z ; std::_Func_impl<<lambda_39ab90f1c5f9e6f03c358ede9dc45e4d>,std::allocator<int>,void,cl::sycl::exception_list>::_Func_impl<<lambda_39ab90f1c5f9e6f03c358ede9dc45e4d>,std::allocator<int>,void,cl::sycl::exception_list><<lambda_39ab90f1c5f9e6f03c358ede9dc45e4d>,std::allocator<int> const & __ptr64>
PUBLIC	??$construct@V?$_Func_impl@V<lambda_a7f33fec5b6c4de3460ce58d02d2d54d>@@V?$allocator@H@std@@XAEAVnd_item_base@detail@sycl@cl@@@std@@V<lambda_a7f33fec5b6c4de3460ce58d02d2d54d>@@AEBV?$allocator@H@2@@?$allocator_traits@V?$allocator@V?$_Func_impl@V<lambda_a7f33fec5b6c4de3460ce58d02d2d54d>@@V?$allocator@H@std@@XAEAVnd_item_base@detail@sycl@cl@@@std@@@std@@@std@@SAXAEAV?$allocator@V?$_Func_impl@V<lambda_a7f33fec5b6c4de3460ce58d02d2d54d>@@V?$allocator@H@std@@XAEAVnd_item_base@detail@sycl@cl@@@std@@@1@PEAV?$_Func_impl@V<lambda_a7f33fec5b6c4de3460ce58d02d2d54d>@@V?$allocator@H@std@@XAEAVnd_item_base@detail@sycl@cl@@@1@$$QEAV<lambda_a7f33fec5b6c4de3460ce58d02d2d54d>@@AEBV?$allocator@H@1@@Z ; std::allocator_traits<std::allocator<std::_Func_impl<<lambda_a7f33fec5b6c4de3460ce58d02d2d54d>,std::allocator<int>,void,cl::sycl::detail::nd_item_base & __ptr64> > >::construct<std::_Func_impl<<lambda_a7f33fec5b6c4de3460ce58d02d2d54d>,std::allocator<int>,void,cl::sycl::detail::nd_item_base & __ptr64>,<lambda_a7f33fec5b6c4de3460ce58d02d2d54d>,std::allocator<int> const & __ptr64>
PUBLIC	??$?0V?$allocator@H@std@@V<lambda_39ab90f1c5f9e6f03c358ede9dc45e4d>@@@?$_Compressed_pair@V?$allocator@H@std@@V<lambda_39ab90f1c5f9e6f03c358ede9dc45e4d>@@$00@std@@QEAA@U_One_then_variadic_args_t@1@$$QEAV?$allocator@H@1@$$QEAV<lambda_39ab90f1c5f9e6f03c358ede9dc45e4d>@@@Z ; std::_Compressed_pair<std::allocator<int>,<lambda_39ab90f1c5f9e6f03c358ede9dc45e4d>,1>::_Compressed_pair<std::allocator<int>,<lambda_39ab90f1c5f9e6f03c358ede9dc45e4d>,1><std::allocator<int>,<lambda_39ab90f1c5f9e6f03c358ede9dc45e4d> >
PUBLIC	??$?0AEBV<lambda_39ab90f1c5f9e6f03c358ede9dc45e4d>@@AEBV?$allocator@H@std@@@?$_Func_impl@V<lambda_39ab90f1c5f9e6f03c358ede9dc45e4d>@@V?$allocator@H@std@@XVexception_list@sycl@cl@@@std@@QEAA@AEBV<lambda_39ab90f1c5f9e6f03c358ede9dc45e4d>@@AEBV?$allocator@H@1@@Z ; std::_Func_impl<<lambda_39ab90f1c5f9e6f03c358ede9dc45e4d>,std::allocator<int>,void,cl::sycl::exception_list>::_Func_impl<<lambda_39ab90f1c5f9e6f03c358ede9dc45e4d>,std::allocator<int>,void,cl::sycl::exception_list><<lambda_39ab90f1c5f9e6f03c358ede9dc45e4d> const & __ptr64,std::allocator<int> const & __ptr64>
PUBLIC	??$destroy@V?$_Func_impl@V<lambda_a7f33fec5b6c4de3460ce58d02d2d54d>@@V?$allocator@H@std@@XAEAVnd_item_base@detail@sycl@cl@@@std@@@?$allocator@V?$_Func_impl@V<lambda_a7f33fec5b6c4de3460ce58d02d2d54d>@@V?$allocator@H@std@@XAEAVnd_item_base@detail@sycl@cl@@@std@@@std@@QEAAXPEAV?$_Func_impl@V<lambda_a7f33fec5b6c4de3460ce58d02d2d54d>@@V?$allocator@H@std@@XAEAVnd_item_base@detail@sycl@cl@@@1@@Z ; std::allocator<std::_Func_impl<<lambda_a7f33fec5b6c4de3460ce58d02d2d54d>,std::allocator<int>,void,cl::sycl::detail::nd_item_base & __ptr64> >::destroy<std::_Func_impl<<lambda_a7f33fec5b6c4de3460ce58d02d2d54d>,std::allocator<int>,void,cl::sycl::detail::nd_item_base & __ptr64> >
PUBLIC	??$construct@V?$_Func_impl@V<lambda_a7f33fec5b6c4de3460ce58d02d2d54d>@@V?$allocator@H@std@@XAEAVnd_item_base@detail@sycl@cl@@@std@@V<lambda_a7f33fec5b6c4de3460ce58d02d2d54d>@@V?$allocator@H@2@@?$allocator@V?$_Func_impl@V<lambda_a7f33fec5b6c4de3460ce58d02d2d54d>@@V?$allocator@H@std@@XAEAVnd_item_base@detail@sycl@cl@@@std@@@std@@QEAAXPEAV?$_Func_impl@V<lambda_a7f33fec5b6c4de3460ce58d02d2d54d>@@V?$allocator@H@std@@XAEAVnd_item_base@detail@sycl@cl@@@1@$$QEAV<lambda_a7f33fec5b6c4de3460ce58d02d2d54d>@@$$QEAV?$allocator@H@1@@Z ; std::allocator<std::_Func_impl<<lambda_a7f33fec5b6c4de3460ce58d02d2d54d>,std::allocator<int>,void,cl::sycl::detail::nd_item_base & __ptr64> >::construct<std::_Func_impl<<lambda_a7f33fec5b6c4de3460ce58d02d2d54d>,std::allocator<int>,void,cl::sycl::detail::nd_item_base & __ptr64>,<lambda_a7f33fec5b6c4de3460ce58d02d2d54d>,std::allocator<int> >
PUBLIC	??$forward@AEBV<lambda_a7f33fec5b6c4de3460ce58d02d2d54d>@@@std@@YAAEBV<lambda_a7f33fec5b6c4de3460ce58d02d2d54d>@@AEBV1@@Z ; std::forward<<lambda_a7f33fec5b6c4de3460ce58d02d2d54d> const & __ptr64>
PUBLIC	??$construct@V?$_Func_impl@V<lambda_a7f33fec5b6c4de3460ce58d02d2d54d>@@V?$allocator@H@std@@XAEAVnd_item_base@detail@sycl@cl@@@std@@AEBV<lambda_a7f33fec5b6c4de3460ce58d02d2d54d>@@AEBV?$allocator@H@2@@?$allocator_traits@V?$allocator@V?$_Func_impl@V<lambda_a7f33fec5b6c4de3460ce58d02d2d54d>@@V?$allocator@H@std@@XAEAVnd_item_base@detail@sycl@cl@@@std@@@std@@@std@@SAXAEAV?$allocator@V?$_Func_impl@V<lambda_a7f33fec5b6c4de3460ce58d02d2d54d>@@V?$allocator@H@std@@XAEAVnd_item_base@detail@sycl@cl@@@std@@@1@PEAV?$_Func_impl@V<lambda_a7f33fec5b6c4de3460ce58d02d2d54d>@@V?$allocator@H@std@@XAEAVnd_item_base@detail@sycl@cl@@@1@AEBV<lambda_a7f33fec5b6c4de3460ce58d02d2d54d>@@AEBV?$allocator@H@1@@Z ; std::allocator_traits<std::allocator<std::_Func_impl<<lambda_a7f33fec5b6c4de3460ce58d02d2d54d>,std::allocator<int>,void,cl::sycl::detail::nd_item_base & __ptr64> > >::construct<std::_Func_impl<<lambda_a7f33fec5b6c4de3460ce58d02d2d54d>,std::allocator<int>,void,cl::sycl::detail::nd_item_base & __ptr64>,<lambda_a7f33fec5b6c4de3460ce58d02d2d54d> const & __ptr64,std::allocator<int> const & __ptr64>
PUBLIC	??$?0AEBV?$allocator@H@std@@V<lambda_39ab90f1c5f9e6f03c358ede9dc45e4d>@@@?$_Compressed_pair@V?$allocator@H@std@@V<lambda_39ab90f1c5f9e6f03c358ede9dc45e4d>@@$00@std@@QEAA@U_One_then_variadic_args_t@1@AEBV?$allocator@H@1@$$QEAV<lambda_39ab90f1c5f9e6f03c358ede9dc45e4d>@@@Z ; std::_Compressed_pair<std::allocator<int>,<lambda_39ab90f1c5f9e6f03c358ede9dc45e4d>,1>::_Compressed_pair<std::allocator<int>,<lambda_39ab90f1c5f9e6f03c358ede9dc45e4d>,1><std::allocator<int> const & __ptr64,<lambda_39ab90f1c5f9e6f03c358ede9dc45e4d> >
PUBLIC	??$construct@V?$_Func_impl@V<lambda_a7f33fec5b6c4de3460ce58d02d2d54d>@@V?$allocator@H@std@@XAEAVnd_item_base@detail@sycl@cl@@@std@@V<lambda_a7f33fec5b6c4de3460ce58d02d2d54d>@@AEBV?$allocator@H@2@@?$allocator@V?$_Func_impl@V<lambda_a7f33fec5b6c4de3460ce58d02d2d54d>@@V?$allocator@H@std@@XAEAVnd_item_base@detail@sycl@cl@@@std@@@std@@QEAAXPEAV?$_Func_impl@V<lambda_a7f33fec5b6c4de3460ce58d02d2d54d>@@V?$allocator@H@std@@XAEAVnd_item_base@detail@sycl@cl@@@1@$$QEAV<lambda_a7f33fec5b6c4de3460ce58d02d2d54d>@@AEBV?$allocator@H@1@@Z ; std::allocator<std::_Func_impl<<lambda_a7f33fec5b6c4de3460ce58d02d2d54d>,std::allocator<int>,void,cl::sycl::detail::nd_item_base & __ptr64> >::construct<std::_Func_impl<<lambda_a7f33fec5b6c4de3460ce58d02d2d54d>,std::allocator<int>,void,cl::sycl::detail::nd_item_base & __ptr64>,<lambda_a7f33fec5b6c4de3460ce58d02d2d54d>,std::allocator<int> const & __ptr64>
PUBLIC	??$?0AEBV?$allocator@H@std@@AEBV<lambda_39ab90f1c5f9e6f03c358ede9dc45e4d>@@@?$_Compressed_pair@V?$allocator@H@std@@V<lambda_39ab90f1c5f9e6f03c358ede9dc45e4d>@@$00@std@@QEAA@U_One_then_variadic_args_t@1@AEBV?$allocator@H@1@AEBV<lambda_39ab90f1c5f9e6f03c358ede9dc45e4d>@@@Z ; std::_Compressed_pair<std::allocator<int>,<lambda_39ab90f1c5f9e6f03c358ede9dc45e4d>,1>::_Compressed_pair<std::allocator<int>,<lambda_39ab90f1c5f9e6f03c358ede9dc45e4d>,1><std::allocator<int> const & __ptr64,<lambda_39ab90f1c5f9e6f03c358ede9dc45e4d> const & __ptr64>
PUBLIC	??$?0V<lambda_a7f33fec5b6c4de3460ce58d02d2d54d>@@V?$allocator@H@std@@@?$_Func_impl@V<lambda_a7f33fec5b6c4de3460ce58d02d2d54d>@@V?$allocator@H@std@@XAEAVnd_item_base@detail@sycl@cl@@@std@@QEAA@$$QEAV<lambda_a7f33fec5b6c4de3460ce58d02d2d54d>@@$$QEAV?$allocator@H@1@@Z ; std::_Func_impl<<lambda_a7f33fec5b6c4de3460ce58d02d2d54d>,std::allocator<int>,void,cl::sycl::detail::nd_item_base & __ptr64>::_Func_impl<<lambda_a7f33fec5b6c4de3460ce58d02d2d54d>,std::allocator<int>,void,cl::sycl::detail::nd_item_base & __ptr64><<lambda_a7f33fec5b6c4de3460ce58d02d2d54d>,std::allocator<int> >
PUBLIC	??$construct@V?$_Func_impl@V<lambda_a7f33fec5b6c4de3460ce58d02d2d54d>@@V?$allocator@H@std@@XAEAVnd_item_base@detail@sycl@cl@@@std@@AEBV<lambda_a7f33fec5b6c4de3460ce58d02d2d54d>@@AEBV?$allocator@H@2@@?$allocator@V?$_Func_impl@V<lambda_a7f33fec5b6c4de3460ce58d02d2d54d>@@V?$allocator@H@std@@XAEAVnd_item_base@detail@sycl@cl@@@std@@@std@@QEAAXPEAV?$_Func_impl@V<lambda_a7f33fec5b6c4de3460ce58d02d2d54d>@@V?$allocator@H@std@@XAEAVnd_item_base@detail@sycl@cl@@@1@AEBV<lambda_a7f33fec5b6c4de3460ce58d02d2d54d>@@AEBV?$allocator@H@1@@Z ; std::allocator<std::_Func_impl<<lambda_a7f33fec5b6c4de3460ce58d02d2d54d>,std::allocator<int>,void,cl::sycl::detail::nd_item_base & __ptr64> >::construct<std::_Func_impl<<lambda_a7f33fec5b6c4de3460ce58d02d2d54d>,std::allocator<int>,void,cl::sycl::detail::nd_item_base & __ptr64>,<lambda_a7f33fec5b6c4de3460ce58d02d2d54d> const & __ptr64,std::allocator<int> const & __ptr64>
PUBLIC	??$?0V<lambda_a7f33fec5b6c4de3460ce58d02d2d54d>@@AEBV?$allocator@H@std@@@?$_Func_impl@V<lambda_a7f33fec5b6c4de3460ce58d02d2d54d>@@V?$allocator@H@std@@XAEAVnd_item_base@detail@sycl@cl@@@std@@QEAA@$$QEAV<lambda_a7f33fec5b6c4de3460ce58d02d2d54d>@@AEBV?$allocator@H@1@@Z ; std::_Func_impl<<lambda_a7f33fec5b6c4de3460ce58d02d2d54d>,std::allocator<int>,void,cl::sycl::detail::nd_item_base & __ptr64>::_Func_impl<<lambda_a7f33fec5b6c4de3460ce58d02d2d54d>,std::allocator<int>,void,cl::sycl::detail::nd_item_base & __ptr64><<lambda_a7f33fec5b6c4de3460ce58d02d2d54d>,std::allocator<int> const & __ptr64>
PUBLIC	??$?0V?$allocator@H@std@@V<lambda_a7f33fec5b6c4de3460ce58d02d2d54d>@@@?$_Compressed_pair@V?$allocator@H@std@@V<lambda_a7f33fec5b6c4de3460ce58d02d2d54d>@@$00@std@@QEAA@U_One_then_variadic_args_t@1@$$QEAV?$allocator@H@1@$$QEAV<lambda_a7f33fec5b6c4de3460ce58d02d2d54d>@@@Z ; std::_Compressed_pair<std::allocator<int>,<lambda_a7f33fec5b6c4de3460ce58d02d2d54d>,1>::_Compressed_pair<std::allocator<int>,<lambda_a7f33fec5b6c4de3460ce58d02d2d54d>,1><std::allocator<int>,<lambda_a7f33fec5b6c4de3460ce58d02d2d54d> >
PUBLIC	??$?0AEBV<lambda_a7f33fec5b6c4de3460ce58d02d2d54d>@@AEBV?$allocator@H@std@@@?$_Func_impl@V<lambda_a7f33fec5b6c4de3460ce58d02d2d54d>@@V?$allocator@H@std@@XAEAVnd_item_base@detail@sycl@cl@@@std@@QEAA@AEBV<lambda_a7f33fec5b6c4de3460ce58d02d2d54d>@@AEBV?$allocator@H@1@@Z ; std::_Func_impl<<lambda_a7f33fec5b6c4de3460ce58d02d2d54d>,std::allocator<int>,void,cl::sycl::detail::nd_item_base & __ptr64>::_Func_impl<<lambda_a7f33fec5b6c4de3460ce58d02d2d54d>,std::allocator<int>,void,cl::sycl::detail::nd_item_base & __ptr64><<lambda_a7f33fec5b6c4de3460ce58d02d2d54d> const & __ptr64,std::allocator<int> const & __ptr64>
PUBLIC	??$?0AEBV?$allocator@H@std@@V<lambda_a7f33fec5b6c4de3460ce58d02d2d54d>@@@?$_Compressed_pair@V?$allocator@H@std@@V<lambda_a7f33fec5b6c4de3460ce58d02d2d54d>@@$00@std@@QEAA@U_One_then_variadic_args_t@1@AEBV?$allocator@H@1@$$QEAV<lambda_a7f33fec5b6c4de3460ce58d02d2d54d>@@@Z ; std::_Compressed_pair<std::allocator<int>,<lambda_a7f33fec5b6c4de3460ce58d02d2d54d>,1>::_Compressed_pair<std::allocator<int>,<lambda_a7f33fec5b6c4de3460ce58d02d2d54d>,1><std::allocator<int> const & __ptr64,<lambda_a7f33fec5b6c4de3460ce58d02d2d54d> >
PUBLIC	??$?0AEBV?$allocator@H@std@@AEBV<lambda_a7f33fec5b6c4de3460ce58d02d2d54d>@@@?$_Compressed_pair@V?$allocator@H@std@@V<lambda_a7f33fec5b6c4de3460ce58d02d2d54d>@@$00@std@@QEAA@U_One_then_variadic_args_t@1@AEBV?$allocator@H@1@AEBV<lambda_a7f33fec5b6c4de3460ce58d02d2d54d>@@@Z ; std::_Compressed_pair<std::allocator<int>,<lambda_a7f33fec5b6c4de3460ce58d02d2d54d>,1>::_Compressed_pair<std::allocator<int>,<lambda_a7f33fec5b6c4de3460ce58d02d2d54d>,1><std::allocator<int> const & __ptr64,<lambda_a7f33fec5b6c4de3460ce58d02d2d54d> const & __ptr64>
PUBLIC	??_C@_1JA@IJKHNLMB@?$AAC?$AA?3?$AA?2?$AAP?$AAr?$AAo?$AAg?$AAr?$AAa?$AAm?$AA?5?$AAF?$AAi?$AAl?$AAe?$AAs?$AA?5?$AA?$CI?$AAx?$AA8?$AA6?$AA?$CJ?$AA?2?$AAM?$AAi?$AAc?$AAr?$AAo?$AAs?$AAo?$AAf?$AAt@ ; `string'
PUBLIC	??_C@_1DC@POOIKBAO@?$AAI?$AAT?$AAE?$AAR?$AAA?$AAT?$AAO?$AAR?$AA?5?$AAL?$AAI?$AAS?$AAT?$AA?5?$AAC?$AAO?$AAR?$AAR?$AAU?$AAP?$AAT?$AAE?$AAD?$AA?$CB?$AA?$AA@ ; `string'
PUBLIC	??_C@_0BE@LMNLACIC@_Ptr_container?5?$CB?$DN?50?$AA@ ; `string'
PUBLIC	??_C@_1DG@HGDKEBPG@?$AA?$CC?$AA_?$AAP?$AAt?$AAr?$AA_?$AAc?$AAo?$AAn?$AAt?$AAa?$AAi?$AAn?$AAe?$AAr?$AA?5?$AA?$CB?$AA?$DN?$AA?5?$AA0?$AA?$CC?$AA?5?$AA?$CG?$AA?$CG?$AA?5?$AA0?$AA?$AA@ ; `string'
PUBLIC	??_C@_17CNPHIMPH@?$AA?$CF?$AAl?$AAs?$AA?$AA@	; `string'
PUBLIC	??_C@_1JA@HEEMAOGC@?$AAC?$AA?3?$AA?2?$AAP?$AAr?$AAo?$AAg?$AAr?$AAa?$AAm?$AA?5?$AAF?$AAi?$AAl?$AAe?$AAs?$AA?5?$AA?$CI?$AAx?$AA8?$AA6?$AA?$CJ?$AA?2?$AAM?$AAi?$AAc?$AAr?$AAo?$AAs?$AAo?$AAf?$AAt@ ; `string'
PUBLIC	??_C@_1BO@NKFMJPA@?$AAs?$AAt?$AAd?$AA?3?$AA?3?$AA_?$AAA?$AAl?$AAl?$AAo?$AAc?$AAa?$AAt?$AAe?$AA?$AA@ ; `string'
PUBLIC	??_C@_1CG@JNLFBNGN@?$AA?$CC?$AAi?$AAn?$AAv?$AAa?$AAl?$AAi?$AAd?$AA?5?$AAa?$AAr?$AAg?$AAu?$AAm?$AAe?$AAn?$AAt?$AA?$CC?$AA?$AA@ ; `string'
PUBLIC	??_C@_09GLJCAGLP@_Ptr?5?$CB?$DN?50?$AA@		; `string'
PUBLIC	??_C@_1CC@GKJLLHIM@?$AA?$CC?$AA_?$AAP?$AAt?$AAr?$AA?5?$AA?$CB?$AA?$DN?$AA?5?$AA0?$AA?$CC?$AA?5?$AA?$CG?$AA?$CG?$AA?5?$AA0?$AA?$AA@ ; `string'
PUBLIC	??_C@_0BN@HMCJOMKN@_Count?5?$DM?$DN?5?$CIsize_t?$CJ?$CI?91?$CJ?5?1?5_Sz?$AA@ ; `string'
PUBLIC	??_C@_1EI@MLOBABC@?$AA?$CC?$AA_?$AAC?$AAo?$AAu?$AAn?$AAt?$AA?5?$AA?$DM?$AA?$DN?$AA?5?$AA?$CI?$AAs?$AAi?$AAz?$AAe?$AA_?$AAt?$AA?$CJ?$AA?$CI?$AA?9?$AA1?$AA?$CJ?$AA?5?$AA?1?$AA?5?$AA_?$AAS?$AAz?$AA?$CC?$AA?5?$AA?$CG@ ; `string'
PUBLIC	??_C@_1CC@LOFJFFDB@?$AAs?$AAt?$AAd?$AA?3?$AA?3?$AA_?$AAD?$AAe?$AAa?$AAl?$AAl?$AAo?$AAc?$AAa?$AAt?$AAe?$AA?$AA@ ; `string'
PUBLIC	??_C@_0DD@GBGGGKGG@?$CI_Ptr_user?5?$CG?5?$CI_BIG_ALLOCATION_AL@ ; `string'
PUBLIC	??_C@_1HE@CDMBFOKC@?$AA?$CC?$AA?$CI?$AA_?$AAP?$AAt?$AAr?$AA_?$AAu?$AAs?$AAe?$AAr?$AA?5?$AA?$CG?$AA?5?$AA?$CI?$AA_?$AAB?$AAI?$AAG?$AA_?$AAA?$AAL?$AAL?$AAO?$AAC?$AAA?$AAT?$AAI?$AAO?$AAN?$AA_?$AAA@ ; `string'
PUBLIC	??_C@_0EI@NOJHEJCJ@reinterpret_cast?$DMuintptr_t?5?$CK?$DO?$CI_P@ ; `string'
PUBLIC	??_C@_1JO@EKLKIEHP@?$AA?$CC?$AAr?$AAe?$AAi?$AAn?$AAt?$AAe?$AAr?$AAp?$AAr?$AAe?$AAt?$AA_?$AAc?$AAa?$AAs?$AAt?$AA?$DM?$AAu?$AAi?$AAn?$AAt?$AAp?$AAt?$AAr?$AA_?$AAt?$AA?5?$AA?$CK?$AA?$DO?$AA?$CI?$AA_@ ; `string'
PUBLIC	??_C@_0BL@OCKMEJON@_Ptr_container?5?$DM?5_Ptr_user?$AA@ ; `string'
PUBLIC	??_C@_1EE@PDHAHDDC@?$AA?$CC?$AA_?$AAP?$AAt?$AAr?$AA_?$AAc?$AAo?$AAn?$AAt?$AAa?$AAi?$AAn?$AAe?$AAr?$AA?5?$AA?$DM?$AA?5?$AA_?$AAP?$AAt?$AAr?$AA_?$AAu?$AAs?$AAe?$AAr?$AA?$CC?$AA?5?$AA?$CG?$AA?$CG?$AA?5@ ; `string'
PUBLIC	??_C@_0DB@GLFJLNCE@2?5?$CK?5sizeof?$CIvoid?5?$CK?$CJ?5?$DM?$DN?5_Ptr_user?5@ ; `string'
PUBLIC	??_C@_1HA@NAPGMHAO@?$AA?$CC?$AA2?$AA?5?$AA?$CK?$AA?5?$AAs?$AAi?$AAz?$AAe?$AAo?$AAf?$AA?$CI?$AAv?$AAo?$AAi?$AAd?$AA?5?$AA?$CK?$AA?$CJ?$AA?5?$AA?$DM?$AA?$DN?$AA?5?$AA_?$AAP?$AAt?$AAr?$AA_?$AAu?$AAs?$AAe?$AAr@ ; `string'
PUBLIC	??_C@_0CN@BLHJCAL@_Ptr_user?5?9?5_Ptr_container?5?$DM?$DN?5_N@ ; `string'
PUBLIC	??_C@_1GI@DHJGPFNI@?$AA?$CC?$AA_?$AAP?$AAt?$AAr?$AA_?$AAu?$AAs?$AAe?$AAr?$AA?5?$AA?9?$AA?5?$AA_?$AAP?$AAt?$AAr?$AA_?$AAc?$AAo?$AAn?$AAt?$AAa?$AAi?$AAn?$AAe?$AAr?$AA?5?$AA?$DM?$AA?$DN?$AA?5?$AA_@ ; `string'
PUBLIC	?npos@?$basic_string@DU?$char_traits@D@std@@V?$allocator@D@2@@std@@2_KB ; std::basic_string<char,std::char_traits<char>,std::allocator<char> >::npos
PUBLIC	??_R0?AVexception@std@@@8			; std::exception `RTTI Type Descriptor'
PUBLIC	??_C@_00CNPNBAHC@?$AA@				; `string'
PUBLIC	??_7_Ref_count_base@std@@6B@			; std::_Ref_count_base::`vftable'
PUBLIC	??_7base_allocator@detail@sycl@cl@@6B@		; cl::sycl::detail::base_allocator::`vftable'
PUBLIC	??_C@_0BP@DEBMIEM@Incorrect?5number?5of?5dimensions?$AA@ ; `string'
PUBLIC	??_C@_0EA@EECDCOAH@C?3?2Program?5Files?2Codeplay?2Comput@ ; `string'
PUBLIC	??_C@_0CI@FNPHFCCM@Standard?5C?$CL?$CL?5Libraries?5Invalid?5A@ ; `string'
PUBLIC	??_C@_1FO@GJIHNDLM@?$AA?$CC?$AAS?$AAt?$AAa?$AAn?$AAd?$AAa?$AAr?$AAd?$AA?5?$AAC?$AA?$CL?$AA?$CL?$AA?5?$AAL?$AAi?$AAb?$AAr?$AAa?$AAr?$AAi?$AAe?$AAs?$AA?5?$AAI?$AAn?$AAv?$AAa?$AAl?$AAi?$AAd?$AA?5@ ; `string'
PUBLIC	??_7?$buffer@H$00V?$aligned_allocator@H@aligned_mem@detail@sycl@cl@@@sycl@cl@@6B@ ; cl::sycl::buffer<int,1,cl::sycl::detail::aligned_mem::aligned_allocator<int> >::`vftable'
PUBLIC	??_R0?AVexception@sycl@cl@@@8			; cl::sycl::exception `RTTI Type Descriptor'
PUBLIC	??_C@_1IM@LECEOODI@?$AAC?$AA?3?$AA?2?$AAP?$AAr?$AAo?$AAg?$AAr?$AAa?$AAm?$AA?5?$AAF?$AAi?$AAl?$AAe?$AAs?$AA?5?$AA?$CI?$AAx?$AA8?$AA6?$AA?$CJ?$AA?2?$AAM?$AAi?$AAc?$AAr?$AAo?$AAs?$AAo?$AAf?$AAt@ ; `string'
PUBLIC	??_C@_1EE@EJDKCLKB@?$AAv?$AAe?$AAc?$AAt?$AAo?$AAr?$AA?5?$AAi?$AAt?$AAe?$AAr?$AAa?$AAt?$AAo?$AAr?$AA?5?$AAn?$AAo?$AAt?$AA?5?$AAi?$AAn?$AAc?$AAr?$AAe?$AAm?$AAe?$AAn?$AAt?$AAa?$AAb?$AAl@ ; `string'
PUBLIC	??_C@_0CE@OFMIGAMM@Standard?5C?$CL?$CL?5Libraries?5Out?5of?5Ra@ ; `string'
PUBLIC	??_C@_1FG@IBPIFFN@?$AA?$CC?$AAS?$AAt?$AAa?$AAn?$AAd?$AAa?$AAr?$AAd?$AA?5?$AAC?$AA?$CL?$AA?$CL?$AA?5?$AAL?$AAi?$AAb?$AAr?$AAa?$AAr?$AAi?$AAe?$AAs?$AA?5?$AAO?$AAu?$AAt?$AA?5?$AAo?$AAf?$AA?5?$AAR@ ; `string'
PUBLIC	??_C@_1PA@EHFENLAH@?$AAs?$AAt?$AAd?$AA?3?$AA?3?$AA_?$AAV?$AAe?$AAc?$AAt?$AAo?$AAr?$AA_?$AAc?$AAo?$AAn?$AAs?$AAt?$AA_?$AAi?$AAt?$AAe?$AAr?$AAa?$AAt?$AAo?$AAr?$AA?$DM?$AAc?$AAl?$AAa?$AAs@ ; `string'
PUBLIC	??_C@_1BO@MEPPHOO@?$AA?$CC?$AAo?$AAu?$AAt?$AA?5?$AAo?$AAf?$AA?5?$AAr?$AAa?$AAn?$AAg?$AAe?$AA?$CC?$AA?$AA@ ; `string'
PUBLIC	??_C@_1EG@FOHJJHAC@?$AAv?$AAe?$AAc?$AAt?$AAo?$AAr?$AA?5?$AAi?$AAt?$AAe?$AAr?$AAa?$AAt?$AAo?$AAr?$AA?5?$AAn?$AAo?$AAt?$AA?5?$AAd?$AAe?$AAr?$AAe?$AAf?$AAe?$AAr?$AAe?$AAn?$AAc?$AAa?$AAb@ ; `string'
PUBLIC	??_C@_1OO@LJOIHFED@?$AAs?$AAt?$AAd?$AA?3?$AA?3?$AA_?$AAV?$AAe?$AAc?$AAt?$AAo?$AAr?$AA_?$AAc?$AAo?$AAn?$AAs?$AAt?$AA_?$AAi?$AAt?$AAe?$AAr?$AAa?$AAt?$AAo?$AAr?$AA?$DM?$AAc?$AAl?$AAa?$AAs@ ; `string'
PUBLIC	??_C@_1IO@IPMLDGDI@?$AAC?$AA?3?$AA?2?$AAP?$AAr?$AAo?$AAg?$AAr?$AAa?$AAm?$AA?5?$AAF?$AAi?$AAl?$AAe?$AAs?$AA?5?$AA?$CI?$AAx?$AA8?$AA6?$AA?$CJ?$AA?2?$AAM?$AAi?$AAc?$AAr?$AAo?$AAs?$AAo?$AAf?$AAt@ ; `string'
PUBLIC	??_7?$aligned_allocator@H@aligned_mem@detail@sycl@cl@@6B@ ; cl::sycl::detail::aligned_mem::aligned_allocator<int>::`vftable'
PUBLIC	??_7?$typed_allocator@HV?$aligned_allocator@H@aligned_mem@detail@sycl@cl@@@detail@sycl@cl@@6B@ ; cl::sycl::detail::typed_allocator<int,cl::sycl::detail::aligned_mem::aligned_allocator<int> >::`vftable'
PUBLIC	??_7?$_Func_base@XVexception_list@sycl@cl@@@std@@6B@ ; std::_Func_base<void,cl::sycl::exception_list>::`vftable'
PUBLIC	??_C@_1DM@HINDPMBP@?$AAv?$AAe?$AAc?$AAt?$AAo?$AAr?$AA?5?$AAi?$AAt?$AAe?$AAr?$AAa?$AAt?$AAo?$AAr?$AAs?$AA?5?$AAi?$AAn?$AAc?$AAo?$AAm?$AAp?$AAa?$AAt?$AAi?$AAb?$AAl?$AAe?$AA?$AA@ ; `string'
PUBLIC	??_C@_1OI@FCCEMMAC@?$AAs?$AAt?$AAd?$AA?3?$AA?3?$AA_?$AAV?$AAe?$AAc?$AAt?$AAo?$AAr?$AA_?$AAc?$AAo?$AAn?$AAs?$AAt?$AA_?$AAi?$AAt?$AAe?$AAr?$AAa?$AAt?$AAo?$AAr?$AA?$DM?$AAc?$AAl?$AAa?$AAs@ ; `string'
PUBLIC	??_C@_0BA@JFNIOLAK@string?5too?5long?$AA@	; `string'
PUBLIC	??_C@_0BI@CFPLBAOH@invalid?5string?5position?$AA@ ; `string'
PUBLIC	??_C@_1CK@EOPGIILJ@?$AAi?$AAn?$AAv?$AAa?$AAl?$AAi?$AAd?$AA?5?$AAn?$AAu?$AAl?$AAl?$AA?5?$AAp?$AAo?$AAi?$AAn?$AAt?$AAe?$AAr?$AA?$AA@ ; `string'
PUBLIC	??_7?$_Ref_count_del@XUNullDeleter@detail@sycl@cl@@@std@@6B@ ; std::_Ref_count_del<void,cl::sycl::detail::NullDeleter>::`vftable'
PUBLIC	??_R0?AUNullDeleter@detail@sycl@cl@@@8		; cl::sycl::detail::NullDeleter `RTTI Type Descriptor'
PUBLIC	??_7?$_Func_base@XAEAVnd_item_base@detail@sycl@cl@@@std@@6B@ ; std::_Func_base<void,cl::sycl::detail::nd_item_base & __ptr64>::`vftable'
PUBLIC	??_7?$_Func_impl@V<lambda_39ab90f1c5f9e6f03c358ede9dc45e4d>@@V?$allocator@H@std@@XVexception_list@sycl@cl@@@std@@6B@ ; std::_Func_impl<<lambda_39ab90f1c5f9e6f03c358ede9dc45e4d>,std::allocator<int>,void,cl::sycl::exception_list>::`vftable'
PUBLIC	??_C@_0EE@JMCLGEGM@Unable?5to?5retrieve?5kernel?5functi@ ; `string'
PUBLIC	??_C@_0DM@PIKGLDLL@C?3?2Program?5Files?2Codeplay?2Comput@ ; `string'
PUBLIC	??_C@_07HNIKHLAL@spirv32?$AA@			; `string'
PUBLIC	??_C@_07CNBLBOGG@spirv64?$AA@			; `string'
PUBLIC	??_R0?AV<lambda_39ab90f1c5f9e6f03c358ede9dc45e4d>@@@8 ; <lambda_39ab90f1c5f9e6f03c358ede9dc45e4d> `RTTI Type Descriptor'
PUBLIC	??_7?$_Func_impl@V<lambda_a7f33fec5b6c4de3460ce58d02d2d54d>@@V?$allocator@H@std@@XAEAVnd_item_base@detail@sycl@cl@@@std@@6B@ ; std::_Func_impl<<lambda_a7f33fec5b6c4de3460ce58d02d2d54d>,std::allocator<int>,void,cl::sycl::detail::nd_item_base & __ptr64>::`vftable'
PUBLIC	??_R0?AV<lambda_a7f33fec5b6c4de3460ce58d02d2d54d>@@@8 ; <lambda_a7f33fec5b6c4de3460ce58d02d2d54d> `RTTI Type Descriptor'
PUBLIC	??_R4_Ref_count_base@std@@6B@			; std::_Ref_count_base::`RTTI Complete Object Locator'
PUBLIC	??_R0?AV_Ref_count_base@std@@@8			; std::_Ref_count_base `RTTI Type Descriptor'
PUBLIC	??_R3_Ref_count_base@std@@8			; std::_Ref_count_base::`RTTI Class Hierarchy Descriptor'
PUBLIC	??_R2_Ref_count_base@std@@8			; std::_Ref_count_base::`RTTI Base Class Array'
PUBLIC	??_R1A@?0A@EA@_Ref_count_base@std@@8		; std::_Ref_count_base::`RTTI Base Class Descriptor at (0,-1,0,64)'
PUBLIC	??_R4base_allocator@detail@sycl@cl@@6B@		; cl::sycl::detail::base_allocator::`RTTI Complete Object Locator'
PUBLIC	??_R0?AVbase_allocator@detail@sycl@cl@@@8	; cl::sycl::detail::base_allocator `RTTI Type Descriptor'
PUBLIC	??_R3base_allocator@detail@sycl@cl@@8		; cl::sycl::detail::base_allocator::`RTTI Class Hierarchy Descriptor'
PUBLIC	??_R2base_allocator@detail@sycl@cl@@8		; cl::sycl::detail::base_allocator::`RTTI Base Class Array'
PUBLIC	??_R1A@?0A@EA@base_allocator@detail@sycl@cl@@8	; cl::sycl::detail::base_allocator::`RTTI Base Class Descriptor at (0,-1,0,64)'
PUBLIC	??_R4?$_Func_base@XVexception_list@sycl@cl@@@std@@6B@ ; std::_Func_base<void,cl::sycl::exception_list>::`RTTI Complete Object Locator'
PUBLIC	??_R0?AV?$_Func_base@XVexception_list@sycl@cl@@@std@@@8 ; std::_Func_base<void,cl::sycl::exception_list> `RTTI Type Descriptor'
PUBLIC	??_R3?$_Func_base@XVexception_list@sycl@cl@@@std@@8 ; std::_Func_base<void,cl::sycl::exception_list>::`RTTI Class Hierarchy Descriptor'
PUBLIC	??_R2?$_Func_base@XVexception_list@sycl@cl@@@std@@8 ; std::_Func_base<void,cl::sycl::exception_list>::`RTTI Base Class Array'
PUBLIC	??_R1A@?0A@EA@?$_Func_base@XVexception_list@sycl@cl@@@std@@8 ; std::_Func_base<void,cl::sycl::exception_list>::`RTTI Base Class Descriptor at (0,-1,0,64)'
PUBLIC	??_R4?$aligned_allocator@H@aligned_mem@detail@sycl@cl@@6B@ ; cl::sycl::detail::aligned_mem::aligned_allocator<int>::`RTTI Complete Object Locator'
PUBLIC	??_R0?AV?$aligned_allocator@H@aligned_mem@detail@sycl@cl@@@8 ; cl::sycl::detail::aligned_mem::aligned_allocator<int> `RTTI Type Descriptor'
PUBLIC	??_R3?$aligned_allocator@H@aligned_mem@detail@sycl@cl@@8 ; cl::sycl::detail::aligned_mem::aligned_allocator<int>::`RTTI Class Hierarchy Descriptor'
PUBLIC	??_R2?$aligned_allocator@H@aligned_mem@detail@sycl@cl@@8 ; cl::sycl::detail::aligned_mem::aligned_allocator<int>::`RTTI Base Class Array'
PUBLIC	??_R1A@?0A@EA@?$aligned_allocator@H@aligned_mem@detail@sycl@cl@@8 ; cl::sycl::detail::aligned_mem::aligned_allocator<int>::`RTTI Base Class Descriptor at (0,-1,0,64)'
PUBLIC	??_R4?$buffer@H$00V?$aligned_allocator@H@aligned_mem@detail@sycl@cl@@@sycl@cl@@6B@ ; cl::sycl::buffer<int,1,cl::sycl::detail::aligned_mem::aligned_allocator<int> >::`RTTI Complete Object Locator'
PUBLIC	??_R0?AV?$buffer@H$00V?$aligned_allocator@H@aligned_mem@detail@sycl@cl@@@sycl@cl@@@8 ; cl::sycl::buffer<int,1,cl::sycl::detail::aligned_mem::aligned_allocator<int> > `RTTI Type Descriptor'
PUBLIC	??_R3?$buffer@H$00V?$aligned_allocator@H@aligned_mem@detail@sycl@cl@@@sycl@cl@@8 ; cl::sycl::buffer<int,1,cl::sycl::detail::aligned_mem::aligned_allocator<int> >::`RTTI Class Hierarchy Descriptor'
PUBLIC	??_R2?$buffer@H$00V?$aligned_allocator@H@aligned_mem@detail@sycl@cl@@@sycl@cl@@8 ; cl::sycl::buffer<int,1,cl::sycl::detail::aligned_mem::aligned_allocator<int> >::`RTTI Base Class Array'
PUBLIC	??_R1A@?0A@EA@?$buffer@H$00V?$aligned_allocator@H@aligned_mem@detail@sycl@cl@@@sycl@cl@@8 ; cl::sycl::buffer<int,1,cl::sycl::detail::aligned_mem::aligned_allocator<int> >::`RTTI Base Class Descriptor at (0,-1,0,64)'
PUBLIC	??_R1A@?0A@EA@buffer_mem@sycl@cl@@8		; cl::sycl::buffer_mem::`RTTI Base Class Descriptor at (0,-1,0,64)'
PUBLIC	??_R0?AVbuffer_mem@sycl@cl@@@8			; cl::sycl::buffer_mem `RTTI Type Descriptor'
PUBLIC	??_R3buffer_mem@sycl@cl@@8			; cl::sycl::buffer_mem::`RTTI Class Hierarchy Descriptor'
PUBLIC	??_R2buffer_mem@sycl@cl@@8			; cl::sycl::buffer_mem::`RTTI Base Class Array'
PUBLIC	??_R1A@?0A@EA@storage_mem@sycl@cl@@8		; cl::sycl::storage_mem::`RTTI Base Class Descriptor at (0,-1,0,64)'
PUBLIC	??_R0?AVstorage_mem@sycl@cl@@@8			; cl::sycl::storage_mem `RTTI Type Descriptor'
PUBLIC	??_R3storage_mem@sycl@cl@@8			; cl::sycl::storage_mem::`RTTI Class Hierarchy Descriptor'
PUBLIC	??_R2storage_mem@sycl@cl@@8			; cl::sycl::storage_mem::`RTTI Base Class Array'
PUBLIC	??_R4?$typed_allocator@HV?$aligned_allocator@H@aligned_mem@detail@sycl@cl@@@detail@sycl@cl@@6B@ ; cl::sycl::detail::typed_allocator<int,cl::sycl::detail::aligned_mem::aligned_allocator<int> >::`RTTI Complete Object Locator'
PUBLIC	??_R0?AV?$typed_allocator@HV?$aligned_allocator@H@aligned_mem@detail@sycl@cl@@@detail@sycl@cl@@@8 ; cl::sycl::detail::typed_allocator<int,cl::sycl::detail::aligned_mem::aligned_allocator<int> > `RTTI Type Descriptor'
PUBLIC	??_R3?$typed_allocator@HV?$aligned_allocator@H@aligned_mem@detail@sycl@cl@@@detail@sycl@cl@@8 ; cl::sycl::detail::typed_allocator<int,cl::sycl::detail::aligned_mem::aligned_allocator<int> >::`RTTI Class Hierarchy Descriptor'
PUBLIC	??_R2?$typed_allocator@HV?$aligned_allocator@H@aligned_mem@detail@sycl@cl@@@detail@sycl@cl@@8 ; cl::sycl::detail::typed_allocator<int,cl::sycl::detail::aligned_mem::aligned_allocator<int> >::`RTTI Base Class Array'
PUBLIC	??_R1A@?0A@EA@?$typed_allocator@HV?$aligned_allocator@H@aligned_mem@detail@sycl@cl@@@detail@sycl@cl@@8 ; cl::sycl::detail::typed_allocator<int,cl::sycl::detail::aligned_mem::aligned_allocator<int> >::`RTTI Base Class Descriptor at (0,-1,0,64)'
PUBLIC	??_R4?$_Func_base@XAEAVnd_item_base@detail@sycl@cl@@@std@@6B@ ; std::_Func_base<void,cl::sycl::detail::nd_item_base & __ptr64>::`RTTI Complete Object Locator'
PUBLIC	??_R0?AV?$_Func_base@XAEAVnd_item_base@detail@sycl@cl@@@std@@@8 ; std::_Func_base<void,cl::sycl::detail::nd_item_base & __ptr64> `RTTI Type Descriptor'
PUBLIC	??_R3?$_Func_base@XAEAVnd_item_base@detail@sycl@cl@@@std@@8 ; std::_Func_base<void,cl::sycl::detail::nd_item_base & __ptr64>::`RTTI Class Hierarchy Descriptor'
PUBLIC	??_R2?$_Func_base@XAEAVnd_item_base@detail@sycl@cl@@@std@@8 ; std::_Func_base<void,cl::sycl::detail::nd_item_base & __ptr64>::`RTTI Base Class Array'
PUBLIC	??_R1A@?0A@EA@?$_Func_base@XAEAVnd_item_base@detail@sycl@cl@@@std@@8 ; std::_Func_base<void,cl::sycl::detail::nd_item_base & __ptr64>::`RTTI Base Class Descriptor at (0,-1,0,64)'
PUBLIC	??_R4?$_Ref_count_del@XUNullDeleter@detail@sycl@cl@@@std@@6B@ ; std::_Ref_count_del<void,cl::sycl::detail::NullDeleter>::`RTTI Complete Object Locator'
PUBLIC	??_R0?AV?$_Ref_count_del@XUNullDeleter@detail@sycl@cl@@@std@@@8 ; std::_Ref_count_del<void,cl::sycl::detail::NullDeleter> `RTTI Type Descriptor'
PUBLIC	??_R3?$_Ref_count_del@XUNullDeleter@detail@sycl@cl@@@std@@8 ; std::_Ref_count_del<void,cl::sycl::detail::NullDeleter>::`RTTI Class Hierarchy Descriptor'
PUBLIC	??_R2?$_Ref_count_del@XUNullDeleter@detail@sycl@cl@@@std@@8 ; std::_Ref_count_del<void,cl::sycl::detail::NullDeleter>::`RTTI Base Class Array'
PUBLIC	??_R1A@?0A@EA@?$_Ref_count_del@XUNullDeleter@detail@sycl@cl@@@std@@8 ; std::_Ref_count_del<void,cl::sycl::detail::NullDeleter>::`RTTI Base Class Descriptor at (0,-1,0,64)'
PUBLIC	??_R4?$_Func_impl@V<lambda_39ab90f1c5f9e6f03c358ede9dc45e4d>@@V?$allocator@H@std@@XVexception_list@sycl@cl@@@std@@6B@ ; std::_Func_impl<<lambda_39ab90f1c5f9e6f03c358ede9dc45e4d>,std::allocator<int>,void,cl::sycl::exception_list>::`RTTI Complete Object Locator'
PUBLIC	??_R0?AV?$_Func_impl@V<lambda_39ab90f1c5f9e6f03c358ede9dc45e4d>@@V?$allocator@H@std@@XVexception_list@sycl@cl@@@std@@@8 ; std::_Func_impl<<lambda_39ab90f1c5f9e6f03c358ede9dc45e4d>,std::allocator<int>,void,cl::sycl::exception_list> `RTTI Type Descriptor'
PUBLIC	??_R3?$_Func_impl@V<lambda_39ab90f1c5f9e6f03c358ede9dc45e4d>@@V?$allocator@H@std@@XVexception_list@sycl@cl@@@std@@8 ; std::_Func_impl<<lambda_39ab90f1c5f9e6f03c358ede9dc45e4d>,std::allocator<int>,void,cl::sycl::exception_list>::`RTTI Class Hierarchy Descriptor'
PUBLIC	??_R2?$_Func_impl@V<lambda_39ab90f1c5f9e6f03c358ede9dc45e4d>@@V?$allocator@H@std@@XVexception_list@sycl@cl@@@std@@8 ; std::_Func_impl<<lambda_39ab90f1c5f9e6f03c358ede9dc45e4d>,std::allocator<int>,void,cl::sycl::exception_list>::`RTTI Base Class Array'
PUBLIC	??_R1A@?0A@EA@?$_Func_impl@V<lambda_39ab90f1c5f9e6f03c358ede9dc45e4d>@@V?$allocator@H@std@@XVexception_list@sycl@cl@@@std@@8 ; std::_Func_impl<<lambda_39ab90f1c5f9e6f03c358ede9dc45e4d>,std::allocator<int>,void,cl::sycl::exception_list>::`RTTI Base Class Descriptor at (0,-1,0,64)'
PUBLIC	??_R4?$_Func_impl@V<lambda_a7f33fec5b6c4de3460ce58d02d2d54d>@@V?$allocator@H@std@@XAEAVnd_item_base@detail@sycl@cl@@@std@@6B@ ; std::_Func_impl<<lambda_a7f33fec5b6c4de3460ce58d02d2d54d>,std::allocator<int>,void,cl::sycl::detail::nd_item_base & __ptr64>::`RTTI Complete Object Locator'
PUBLIC	??_R0?AV?$_Func_impl@V<lambda_a7f33fec5b6c4de3460ce58d02d2d54d>@@V?$allocator@H@std@@XAEAVnd_item_base@detail@sycl@cl@@@std@@@8 ; std::_Func_impl<<lambda_a7f33fec5b6c4de3460ce58d02d2d54d>,std::allocator<int>,void,cl::sycl::detail::nd_item_base & __ptr64> `RTTI Type Descriptor'
PUBLIC	??_R3?$_Func_impl@V<lambda_a7f33fec5b6c4de3460ce58d02d2d54d>@@V?$allocator@H@std@@XAEAVnd_item_base@detail@sycl@cl@@@std@@8 ; std::_Func_impl<<lambda_a7f33fec5b6c4de3460ce58d02d2d54d>,std::allocator<int>,void,cl::sycl::detail::nd_item_base & __ptr64>::`RTTI Class Hierarchy Descriptor'
PUBLIC	??_R2?$_Func_impl@V<lambda_a7f33fec5b6c4de3460ce58d02d2d54d>@@V?$allocator@H@std@@XAEAVnd_item_base@detail@sycl@cl@@@std@@8 ; std::_Func_impl<<lambda_a7f33fec5b6c4de3460ce58d02d2d54d>,std::allocator<int>,void,cl::sycl::detail::nd_item_base & __ptr64>::`RTTI Base Class Array'
PUBLIC	??_R1A@?0A@EA@?$_Func_impl@V<lambda_a7f33fec5b6c4de3460ce58d02d2d54d>@@V?$allocator@H@std@@XAEAVnd_item_base@detail@sycl@cl@@@std@@8 ; std::_Func_impl<<lambda_a7f33fec5b6c4de3460ce58d02d2d54d>,std::allocator<int>,void,cl::sycl::detail::nd_item_base & __ptr64>::`RTTI Base Class Descriptor at (0,-1,0,64)'
EXTRN	_purecall:PROC
EXTRN	??2@YAPEAX_K@Z:PROC				; operator new
EXTRN	??3@YAXPEAX@Z:PROC				; operator delete
EXTRN	??3@YAXPEAX_K@Z:PROC				; operator delete
EXTRN	__imp__invalid_parameter:PROC
EXTRN	__imp_??0_Lockit@std@@QEAA@H@Z:PROC
EXTRN	__imp_??1_Lockit@std@@QEAA@XZ:PROC
EXTRN	memcmp:PROC
EXTRN	memcpy:PROC
EXTRN	__imp_memmove:PROC
EXTRN	__imp_?uncaught_exception@std@@YA_NXZ:PROC
EXTRN	__imp_?__ExceptionPtrDestroy@@YAXPEAX@Z:PROC
EXTRN	__imp_?__ExceptionPtrCopy@@YAXPEAXPEBX@Z:PROC
EXTRN	__imp_?__ExceptionPtrRethrow@@YAXPEBX@Z:PROC
EXTRN	strlen:PROC
EXTRN	__imp__CrtDbgReportW:PROC
EXTRN	__imp_?_Debug_message@std@@YAXPEB_W0I@Z:PROC
EXTRN	__imp_?_Xbad_alloc@std@@YAXXZ:PROC
EXTRN	__imp_?_Xlength_error@std@@YAXPEBD@Z:PROC
EXTRN	__imp_?_Xout_of_range@std@@YAXPEBD@Z:PROC
EXTRN	__imp___std_type_info_compare:PROC
EXTRN	__imp_?good@ios_base@std@@QEBA_NXZ:PROC
EXTRN	__imp_?flags@ios_base@std@@QEBAHXZ:PROC
EXTRN	__imp_?width@ios_base@std@@QEBA_JXZ:PROC
EXTRN	__imp_?width@ios_base@std@@QEAA_J_J@Z:PROC
EXTRN	__imp_?sputc@?$basic_streambuf@DU?$char_traits@D@std@@@std@@QEAAHD@Z:PROC
EXTRN	__imp_?sputn@?$basic_streambuf@DU?$char_traits@D@std@@@std@@QEAA_JPEBD_J@Z:PROC
EXTRN	__imp_?setstate@?$basic_ios@DU?$char_traits@D@std@@@std@@QEAAXH_N@Z:PROC
EXTRN	__imp_?tie@?$basic_ios@DU?$char_traits@D@std@@@std@@QEBAPEAV?$basic_ostream@DU?$char_traits@D@std@@@2@XZ:PROC
EXTRN	__imp_?rdbuf@?$basic_ios@DU?$char_traits@D@std@@@std@@QEBAPEAV?$basic_streambuf@DU?$char_traits@D@std@@@2@XZ:PROC
EXTRN	__imp_?fill@?$basic_ios@DU?$char_traits@D@std@@@std@@QEBADXZ:PROC
EXTRN	__imp_?widen@?$basic_ios@DU?$char_traits@D@std@@@std@@QEBADD@Z:PROC
EXTRN	__imp_?_Osfx@?$basic_ostream@DU?$char_traits@D@std@@@std@@QEAAXXZ:PROC
EXTRN	__imp_??6?$basic_ostream@DU?$char_traits@D@std@@@std@@QEAAAEAV01@P6AAEAV01@AEAV01@@Z@Z:PROC
EXTRN	__imp_??6?$basic_ostream@DU?$char_traits@D@std@@@std@@QEAAAEAV01@H@Z:PROC
EXTRN	__imp_?put@?$basic_ostream@DU?$char_traits@D@std@@@std@@QEAAAEAV12@D@Z:PROC
EXTRN	__imp_?flush@?$basic_ostream@DU?$char_traits@D@std@@@std@@QEAAAEAV12@XZ:PROC
EXTRN	??_E_Ref_count_base@std@@UEAAPEAXI@Z:PROC	; std::_Ref_count_base::`vector deleting destructor'
EXTRN	__imp_??1exception@sycl@cl@@UEAA@XZ:PROC
EXTRN	__imp_?what@exception@sycl@cl@@UEBAPEBDXZ:PROC
EXTRN	__imp_?begin@exception_list@sycl@cl@@QEBA?AV?$_Vector_const_iterator@V?$_Vector_val@U?$_Simple_types@Vexception_ptr@std@@@std@@@std@@@std@@XZ:PROC
EXTRN	__imp_?end@exception_list@sycl@cl@@QEBA?AV?$_Vector_const_iterator@V?$_Vector_val@U?$_Simple_types@Vexception_ptr@std@@@std@@@std@@@std@@XZ:PROC
EXTRN	__imp_??1exception_list@sycl@cl@@QEAA@XZ:PROC
EXTRN	__imp_??0exception_list@sycl@cl@@QEAA@$$QEAV012@@Z:PROC
EXTRN	__imp_?trigger_sycl_log@detail@sycl@cl@@YAXW4log_type@23@PEBDHHW4cpp_error_code@123@PEBVcontext@123@1@Z:PROC
EXTRN	__imp_??0handler_event@sycl@cl@@QEAA@AEBV?$shared_ptr@Vevent@detail@sycl@cl@@@std@@@Z:PROC
EXTRN	__imp_??1handler_event@sycl@cl@@QEAA@XZ:PROC
EXTRN	??_Ebase_allocator@detail@sycl@cl@@UEAAPEAXI@Z:PROC ; cl::sycl::detail::base_allocator::`vector deleting destructor'
EXTRN	__imp_?get_default_alignment@aligned_mem@detail@sycl@cl@@YA_KXZ:PROC
EXTRN	__imp_?get_default_required_size_multiplier@aligned_mem@detail@sycl@cl@@YA_KXZ:PROC
EXTRN	__imp_?allocate@aligned_mem@detail@sycl@cl@@YAPEAX_K00@Z:PROC
EXTRN	__imp_?deallocate@aligned_mem@detail@sycl@cl@@YAXPEAX_K1@Z:PROC
EXTRN	__imp_??0?$vector@V?$shared_ptr@Vproperty_base@detail@sycl@cl@@@std@@V?$allocator@V?$shared_ptr@Vproperty_base@detail@sycl@cl@@@std@@@2@@std@@QEAA@XZ:PROC
EXTRN	__imp_??1?$vector@V?$shared_ptr@Vproperty_base@detail@sycl@cl@@@std@@V?$allocator@V?$shared_ptr@Vproperty_base@detail@sycl@cl@@@std@@@2@@std@@QEAA@XZ:PROC
EXTRN	__imp_?reserve@?$vector@V?$shared_ptr@Vproperty_base@detail@sycl@cl@@@std@@V?$allocator@V?$shared_ptr@Vproperty_base@detail@sycl@cl@@@std@@@2@@std@@QEAAX_K@Z:PROC
EXTRN	__imp_??1property_list@codeplay@sycl@cl@@QEAA@XZ:PROC
EXTRN	__imp_??0default_selector@sycl@cl@@QEAA@XZ:PROC
EXTRN	__imp_??1default_selector@sycl@cl@@UEAA@XZ:PROC
EXTRN	__imp_??1context@sycl@cl@@QEAA@XZ:PROC
EXTRN	__imp_?is_host@context@sycl@cl@@QEBA_NXZ:PROC
EXTRN	__imp_?get_impl@context@sycl@cl@@QEBA?AV?$shared_ptr@Vcontext@detail@sycl@cl@@@std@@XZ:PROC
EXTRN	__imp_??0buffer_mem@sycl@cl@@QEAA@$$QEAV?$shared_ptr@X@std@@GAEBVindex_array@detail@12@_KW4pointer_origin@012@$$QEAV?$unique_ptr@Vbase_allocator@detail@sycl@cl@@U?$default_delete@Vbase_allocator@detail@sycl@cl@@@std@@@4@AEBVproperty_list@codeplay@12@@Z:PROC
EXTRN	__imp_??1buffer_mem@sycl@cl@@UEAA@XZ:PROC
EXTRN	__imp_??0accessor_base@sycl@cl@@QEAA@AEAVstorage_mem@12@W4mode@access@12@W4target@512@_KAEAVhandler@12@@Z:PROC
EXTRN	__imp_??0accessor_base@sycl@cl@@QEAA@AEBV012@@Z:PROC
EXTRN	__imp_??0accessor_base@sycl@cl@@QEAA@$$QEAV012@@Z:PROC
EXTRN	__imp_??1accessor_base@sycl@cl@@QEAA@XZ:PROC
EXTRN	__imp_?get_range@accessor_base@sycl@cl@@QEBA?AVindex_array@detail@23@XZ:PROC
EXTRN	__imp_??0kernel@sycl@cl@@QEAA@AEBV012@@Z:PROC
EXTRN	__imp_??1kernel@sycl@cl@@UEAA@XZ:PROC
EXTRN	__imp_??0program@sycl@cl@@QEAA@AEBVcontext@12@@Z:PROC
EXTRN	__imp_??0program@sycl@cl@@QEAA@AEBV012@@Z:PROC
EXTRN	__imp_??1program@sycl@cl@@QEAA@XZ:PROC
EXTRN	__imp_?create_program_for_kernel_impl@program@sycl@cl@@CA?AV123@V?$basic_string@DU?$char_traits@D@std@@V?$allocator@D@2@@std@@PEBEHQEBQEBDV?$shared_ptr@Vcontext@detail@sycl@cl@@@5@_N@Z:PROC
EXTRN	__imp_?get_kernel_impl@program@sycl@cl@@AEBA?AVkernel@23@V?$basic_string@DU?$char_traits@D@std@@V?$allocator@D@2@@std@@@Z:PROC
EXTRN	__imp_?get_kernel_binary_info_impl@program@sycl@cl@@CAAEBUkernel_binary_info@detail@23@PEBQEBU4523@_K@Z:PROC
EXTRN	__imp_?get_context@handler@sycl@cl@@IEAA?AVcontext@23@XZ:PROC
EXTRN	__imp_?execute_kernel_parallel_for_ptr@handler@sycl@cl@@IEAAXAEBVnd_range_base@detail@23@AEBVkernel@23@AEBV?$function@$$A6AXAEAVnd_item_base@detail@sycl@cl@@@Z@std@@PEAVEnqueueDeviceKernelCommand@523@@Z:PROC
EXTRN	__imp_?process_functor_arguments_impl@handler@sycl@cl@@IEAAXVkernel@23@PEBEPEB_K222PEBH333PEB_N4PEAVEnqueueDeviceKernelCommand@detail@23@@Z:PROC
EXTRN	__imp_?create_kernel_command_group@handler@sycl@cl@@IEAAPEAVEnqueueDeviceKernelCommand@detail@23@XZ:PROC
EXTRN	__imp_??0queue@sycl@cl@@QEAA@AEBVdevice_selector@12@V?$function@$$A6AXVexception_list@sycl@cl@@@Z@std@@@Z:PROC
EXTRN	__imp_??1queue@sycl@cl@@QEAA@XZ:PROC
EXTRN	__imp_?create_handler@queue@sycl@cl@@QEBAPEAVhandler@23@XZ:PROC
EXTRN	__imp_?create_handler@queue@sycl@cl@@QEBAPEAVhandler@23@AEBV123@@Z:PROC
EXTRN	__imp_?finish_handler@queue@sycl@cl@@IEBA?AV?$shared_ptr@Vevent@detail@sycl@cl@@@std@@PEAVhandler@23@@Z:PROC
EXTRN	??_E?$buffer@H$00V?$aligned_allocator@H@aligned_mem@detail@sycl@cl@@@sycl@cl@@UEAAPEAXI@Z:PROC ; cl::sycl::buffer<int,1,cl::sycl::detail::aligned_mem::aligned_allocator<int> >::`vector deleting destructor'
EXTRN	??_E?$aligned_allocator@H@aligned_mem@detail@sycl@cl@@UEAAPEAXI@Z:PROC ; cl::sycl::detail::aligned_mem::aligned_allocator<int>::`vector deleting destructor'
EXTRN	??_E?$typed_allocator@HV?$aligned_allocator@H@aligned_mem@detail@sycl@cl@@@detail@sycl@cl@@UEAAPEAXI@Z:PROC ; cl::sycl::detail::typed_allocator<int,cl::sycl::detail::aligned_mem::aligned_allocator<int> >::`vector deleting destructor'
EXTRN	??_E?$_Ref_count_del@XUNullDeleter@detail@sycl@cl@@@std@@UEAAPEAXI@Z:PROC ; std::_Ref_count_del<void,cl::sycl::detail::NullDeleter>::`vector deleting destructor'
EXTRN	_CxxThrowException:PROC
EXTRN	_RTC_CheckStackVars:PROC
EXTRN	_RTC_InitBase:PROC
EXTRN	_RTC_Shutdown:PROC
EXTRN	__CxxFrameHandler3:PROC
EXTRN	__GSHandlerCheck:PROC
EXTRN	__GSHandlerCheck_EH:PROC
EXTRN	__security_check_cookie:PROC
EXTRN	??_7type_info@@6B@:BYTE				; type_info::`vftable'
EXTRN	__imp_?cout@std@@3V?$basic_ostream@DU?$char_traits@D@std@@@1@A:BYTE
EXTRN	__security_cookie:QWORD
_BSS	SEGMENT
?SYCL_parallel_for_cpp_bin_spir64_info@?A0xcf7f8366@detail@sycl@cl@@3Ukernel_binary_info@234@B DB 028H DUP (?) ; cl::sycl::detail::`anonymous namespace'::SYCL_parallel_for_cpp_bin_spir64_info
_BSS	ENDS
;	COMDAT pdata
pdata	SEGMENT
$pdata$?__empty_global_delete@@YAXPEAX@Z DD imagerel $LN3
	DD	imagerel $LN3+8
	DD	imagerel $unwind$?__empty_global_delete@@YAXPEAX@Z
pdata	ENDS
;	COMDAT pdata
pdata	SEGMENT
$pdata$?__empty_global_delete@@YAXPEAX_K@Z DD imagerel $LN3
	DD	imagerel $LN3+13
	DD	imagerel $unwind$?__empty_global_delete@@YAXPEAX_K@Z
pdata	ENDS
;	COMDAT pdata
pdata	SEGMENT
$pdata$??1exception_ptr@std@@QEAA@XZ DD imagerel $LN3
	DD	imagerel $LN3+47
	DD	imagerel $unwind$??1exception_ptr@std@@QEAA@XZ
pdata	ENDS
;	COMDAT pdata
pdata	SEGMENT
$pdata$??0exception_ptr@std@@QEAA@AEBV01@@Z DD imagerel $LN3
	DD	imagerel $LN3+62
	DD	imagerel $unwind$??0exception_ptr@std@@QEAA@AEBV01@@Z
pdata	ENDS
;	COMDAT pdata
pdata	SEGMENT
$pdata$?_RethrowException@exception_ptr@std@@QEBAXXZ DD imagerel $LN3
	DD	imagerel $LN3+47
	DD	imagerel $unwind$?_RethrowException@exception_ptr@std@@QEBAXXZ
pdata	ENDS
;	COMDAT pdata
pdata	SEGMENT
$pdata$?rethrow_exception@std@@YAXVexception_ptr@1@@Z DD imagerel $LN5
	DD	imagerel $LN5+68
	DD	imagerel $unwind$?rethrow_exception@std@@YAXVexception_ptr@1@@Z
pdata	ENDS
;	COMDAT pdata
pdata	SEGMENT
$pdata$?dtor$0@?0??rethrow_exception@std@@YAXVexception_ptr@1@@Z@4HA DD imagerel ?dtor$0@?0??rethrow_exception@std@@YAXVexception_ptr@1@@Z@4HA
	DD	imagerel ?dtor$0@?0??rethrow_exception@std@@YAXVexception_ptr@1@@Z@4HA+35
	DD	imagerel $unwind$?dtor$0@?0??rethrow_exception@std@@YAXVexception_ptr@1@@Z@4HA
pdata	ENDS
;	COMDAT pdata
pdata	SEGMENT
$pdata$??2@YAPEAX_KPEAX@Z DD imagerel $LN3
	DD	imagerel $LN3+18
	DD	imagerel $unwind$??2@YAPEAX_KPEAX@Z
pdata	ENDS
;	COMDAT pdata
pdata	SEGMENT
$pdata$??3@YAXPEAX0@Z DD imagerel $LN3
	DD	imagerel $LN3+13
	DD	imagerel $unwind$??3@YAXPEAX0@Z
pdata	ENDS
;	COMDAT pdata
pdata	SEGMENT
$pdata$?compare@?$char_traits@D@std@@SAHPEBD0_K@Z DD imagerel $LN5
	DD	imagerel $LN5+92
	DD	imagerel $unwind$?compare@?$char_traits@D@std@@SAHPEBD0_K@Z
pdata	ENDS
;	COMDAT pdata
pdata	SEGMENT
$pdata$?length@?$char_traits@D@std@@SA_KPEBD@Z DD imagerel $LN5
	DD	imagerel $LN5+79
	DD	imagerel $unwind$?length@?$char_traits@D@std@@SA_KPEBD@Z
pdata	ENDS
;	COMDAT pdata
pdata	SEGMENT
$pdata$?copy@?$char_traits@D@std@@SAPEADPEADPEBD_K@Z DD imagerel $LN5
	DD	imagerel $LN5+96
	DD	imagerel $unwind$?copy@?$char_traits@D@std@@SAPEADPEADPEBD_K@Z
pdata	ENDS
;	COMDAT pdata
pdata	SEGMENT
$pdata$?move@?$char_traits@D@std@@SAPEADPEADPEBD_K@Z DD imagerel $LN5
	DD	imagerel $LN5+97
	DD	imagerel $unwind$?move@?$char_traits@D@std@@SAPEADPEADPEBD_K@Z
pdata	ENDS
;	COMDAT pdata
pdata	SEGMENT
$pdata$?assign@?$char_traits@D@std@@SAXAEADAEBD@Z DD imagerel $LN3
	DD	imagerel $LN3+28
	DD	imagerel $unwind$?assign@?$char_traits@D@std@@SAXAEADAEBD@Z
pdata	ENDS
;	COMDAT pdata
pdata	SEGMENT
$pdata$?eq_int_type@?$char_traits@D@std@@SA_NAEBH0@Z DD imagerel $LN5
	DD	imagerel $LN5+77
	DD	imagerel $unwind$?eq_int_type@?$char_traits@D@std@@SA_NAEBH0@Z
pdata	ENDS
;	COMDAT pdata
pdata	SEGMENT
$pdata$?eof@?$char_traits@D@std@@SAHXZ DD imagerel $LN3
	DD	imagerel $LN3+9
	DD	imagerel $unwind$?eof@?$char_traits@D@std@@SAHXZ
pdata	ENDS
;	COMDAT pdata
pdata	SEGMENT
$pdata$??0_Container_proxy@std@@QEAA@XZ DD imagerel $LN3
	DD	imagerel $LN3+38
	DD	imagerel $unwind$??0_Container_proxy@std@@QEAA@XZ
pdata	ENDS
;	COMDAT pdata
pdata	SEGMENT
$pdata$??0_Container_base12@std@@QEAA@XZ DD imagerel $LN3
	DD	imagerel $LN3+25
	DD	imagerel $unwind$??0_Container_base12@std@@QEAA@XZ
pdata	ENDS
;	COMDAT pdata
pdata	SEGMENT
$pdata$??1_Container_base12@std@@QEAA@XZ DD imagerel $LN3
	DD	imagerel $LN3+56
	DD	imagerel $unwind$??1_Container_base12@std@@QEAA@XZ
pdata	ENDS
;	COMDAT pdata
pdata	SEGMENT
$pdata$?_Orphan_all@_Container_base12@std@@QEAAXXZ DD imagerel $LN8
	DD	imagerel $LN8+172
	DD	imagerel $unwind$?_Orphan_all@_Container_base12@std@@QEAAXXZ
pdata	ENDS
;	COMDAT pdata
pdata	SEGMENT
$pdata$??1_Iterator_base12@std@@QEAA@XZ DD imagerel $LN3
	DD	imagerel $LN3+101
	DD	imagerel $unwind$??1_Iterator_base12@std@@QEAA@XZ
pdata	ENDS
;	COMDAT pdata
pdata	SEGMENT
$pdata$?_Getcont@_Iterator_base12@std@@QEBAPEBU_Container_base12@2@XZ DD imagerel $LN5
	DD	imagerel $LN5+76
	DD	imagerel $unwind$?_Getcont@_Iterator_base12@std@@QEBAPEBU_Container_base12@2@XZ
pdata	ENDS
;	COMDAT pdata
pdata	SEGMENT
$pdata$?_Orphan_me@_Iterator_base12@std@@QEAAXXZ DD imagerel $LN7
	DD	imagerel $LN7+179
	DD	imagerel $unwind$?_Orphan_me@_Iterator_base12@std@@QEAAXXZ
pdata	ENDS
;	COMDAT pdata
pdata	SEGMENT
$pdata$?_Allocate@std@@YAPEAX_K0_N@Z DD imagerel $LN14
	DD	imagerel $LN14+539
	DD	imagerel $unwind$?_Allocate@std@@YAPEAX_K0_N@Z
pdata	ENDS
;	COMDAT pdata
pdata	SEGMENT
$pdata$?_Deallocate@std@@YAXPEAX_K1@Z DD imagerel $LN22
	DD	imagerel $LN22+969
	DD	imagerel $unwind$?_Deallocate@std@@YAXPEAX_K1@Z
pdata	ENDS
;	COMDAT pdata
pdata	SEGMENT
$pdata$?_Init_atomic_counter@std@@YAXAEAKK@Z DD imagerel $LN3
	DD	imagerel $LN3+23
	DD	imagerel $unwind$?_Init_atomic_counter@std@@YAXAEAKK@Z
pdata	ENDS
;	COMDAT pdata
pdata	SEGMENT
$pdata$??8type_info@@QEBA_NAEBV0@@Z DD imagerel $LN5
	DD	imagerel $LN5+95
	DD	imagerel $unwind$??8type_info@@QEBA_NAEBV0@@Z
pdata	ENDS
;	COMDAT pdata
pdata	SEGMENT
$pdata$??0?$allocator@D@std@@QEAA@XZ DD imagerel $LN3
	DD	imagerel $LN3+13
	DD	imagerel $unwind$??0?$allocator@D@std@@QEAA@XZ
pdata	ENDS
;	COMDAT pdata
pdata	SEGMENT
$pdata$??0?$allocator@D@std@@QEAA@AEBV01@@Z DD imagerel $LN3
	DD	imagerel $LN3+18
	DD	imagerel $unwind$??0?$allocator@D@std@@QEAA@AEBV01@@Z
pdata	ENDS
;	COMDAT pdata
pdata	SEGMENT
$pdata$?deallocate@?$allocator@D@std@@QEAAXPEAD_K@Z DD imagerel $LN3
	DD	imagerel $LN3+67
	DD	imagerel $unwind$?deallocate@?$allocator@D@std@@QEAAXPEAD_K@Z
pdata	ENDS
;	COMDAT pdata
pdata	SEGMENT
$pdata$?allocate@?$allocator@D@std@@QEAAPEAD_K@Z DD imagerel $LN3
	DD	imagerel $LN3+59
	DD	imagerel $unwind$?allocate@?$allocator@D@std@@QEAAPEAD_K@Z
pdata	ENDS
;	COMDAT pdata
pdata	SEGMENT
$pdata$?max_size@?$allocator@D@std@@QEBA_KXZ DD imagerel $LN3
	DD	imagerel $LN3+15
	DD	imagerel $unwind$?max_size@?$allocator@D@std@@QEBA_KXZ
pdata	ENDS
;	COMDAT pdata
pdata	SEGMENT
$pdata$?max_size@?$allocator_traits@V?$allocator@D@std@@@std@@SA_KAEBV?$allocator@D@2@@Z DD imagerel $LN3
	DD	imagerel $LN3+46
	DD	imagerel $unwind$?max_size@?$allocator_traits@V?$allocator@D@std@@@std@@SA_KAEBV?$allocator@D@2@@Z
pdata	ENDS
;	COMDAT pdata
pdata	SEGMENT
$pdata$?select_on_container_copy_construction@?$allocator_traits@V?$allocator@D@std@@@std@@SA?AV?$allocator@D@2@AEBV32@@Z DD imagerel $LN3
	DD	imagerel $LN3+61
	DD	imagerel $unwind$?select_on_container_copy_construction@?$allocator_traits@V?$allocator@D@std@@@std@@SA?AV?$allocator@D@2@AEBV32@@Z
pdata	ENDS
;	COMDAT pdata
pdata	SEGMENT
$pdata$?select_on_container_copy_construction@?$_Wrap_alloc@V?$allocator@D@std@@@std@@QEBA?AU12@U_Nil@2@@Z DD imagerel $LN3
	DD	imagerel $LN3+79
	DD	imagerel $unwind$?select_on_container_copy_construction@?$_Wrap_alloc@V?$allocator@D@std@@@std@@QEBA?AU12@U_Nil@2@@Z
pdata	ENDS
;	COMDAT pdata
pdata	SEGMENT
$pdata$??0?$_Wrap_alloc@V?$allocator@D@std@@@std@@QEAA@XZ DD imagerel $LN3
	DD	imagerel $LN3+51
	DD	imagerel $unwind$??0?$_Wrap_alloc@V?$allocator@D@std@@@std@@QEAA@XZ
pdata	ENDS
;	COMDAT pdata
pdata	SEGMENT
$pdata$??0?$_Wrap_alloc@V?$allocator@D@std@@@std@@QEAA@$$QEAU01@@Z DD imagerel $LN3
	DD	imagerel $LN3+69
	DD	imagerel $unwind$??0?$_Wrap_alloc@V?$allocator@D@std@@@std@@QEAA@$$QEAU01@@Z
pdata	ENDS
;	COMDAT pdata
pdata	SEGMENT
$pdata$?allocate@?$_Wrap_alloc@V?$allocator@D@std@@@std@@QEAAPEAD_K@Z DD imagerel $LN3
	DD	imagerel $LN3+56
	DD	imagerel $unwind$?allocate@?$_Wrap_alloc@V?$allocator@D@std@@@std@@QEAAPEAD_K@Z
pdata	ENDS
;	COMDAT pdata
pdata	SEGMENT
$pdata$?deallocate@?$_Wrap_alloc@V?$allocator@D@std@@@std@@QEAAXPEAD_K@Z DD imagerel $LN3
	DD	imagerel $LN3+66
	DD	imagerel $unwind$?deallocate@?$_Wrap_alloc@V?$allocator@D@std@@@std@@QEAAXPEAD_K@Z
pdata	ENDS
;	COMDAT pdata
pdata	SEGMENT
$pdata$?max_size@?$_Wrap_alloc@V?$allocator@D@std@@@std@@QEBA_KU_Nil@2@@Z DD imagerel $LN3
	DD	imagerel $LN3+50
	DD	imagerel $unwind$?max_size@?$_Wrap_alloc@V?$allocator@D@std@@@std@@QEBA_KU_Nil@2@@Z
pdata	ENDS
;	COMDAT pdata
pdata	SEGMENT
$pdata$??0?$_String_val@U?$_Simple_types@D@std@@@std@@QEAA@XZ DD imagerel $LN5
	DD	imagerel $LN5+104
	DD	imagerel $unwind$??0?$_String_val@U?$_Simple_types@D@std@@@std@@QEAA@XZ
pdata	ENDS
;	COMDAT pdata
pdata	SEGMENT
$pdata$?dtor$0@?0???0?$_String_val@U?$_Simple_types@D@std@@@std@@QEAA@XZ@4HA DD imagerel ?dtor$0@?0???0?$_String_val@U?$_Simple_types@D@std@@@std@@QEAA@XZ@4HA
	DD	imagerel ?dtor$0@?0???0?$_String_val@U?$_Simple_types@D@std@@@std@@QEAA@XZ@4HA+35
	DD	imagerel $unwind$?dtor$0@?0???0?$_String_val@U?$_Simple_types@D@std@@@std@@QEAA@XZ@4HA
pdata	ENDS
;	COMDAT pdata
pdata	SEGMENT
$pdata$?_Myptr@?$_String_val@U?$_Simple_types@D@std@@@std@@QEAAPEADXZ DD imagerel $LN5
	DD	imagerel $LN5+88
	DD	imagerel $unwind$?_Myptr@?$_String_val@U?$_Simple_types@D@std@@@std@@QEAAPEADXZ
pdata	ENDS
;	COMDAT pdata
pdata	SEGMENT
$pdata$?_Myptr@?$_String_val@U?$_Simple_types@D@std@@@std@@QEBAPEBDXZ DD imagerel $LN5
	DD	imagerel $LN5+88
	DD	imagerel $unwind$?_Myptr@?$_String_val@U?$_Simple_types@D@std@@@std@@QEBAPEBDXZ
pdata	ENDS
;	COMDAT pdata
pdata	SEGMENT
$pdata$??0_Bxty@?$_String_val@U?$_Simple_types@D@std@@@std@@QEAA@XZ DD imagerel $LN3
	DD	imagerel $LN3+13
	DD	imagerel $unwind$??0_Bxty@?$_String_val@U?$_Simple_types@D@std@@@std@@QEAA@XZ
pdata	ENDS
;	COMDAT pdata
pdata	SEGMENT
$pdata$??1_Bxty@?$_String_val@U?$_Simple_types@D@std@@@std@@QEAA@XZ DD imagerel $LN3
	DD	imagerel $LN3+8
	DD	imagerel $unwind$??1_Bxty@?$_String_val@U?$_Simple_types@D@std@@@std@@QEAA@XZ
pdata	ENDS
;	COMDAT pdata
pdata	SEGMENT
$pdata$??1?$_String_val@U?$_Simple_types@D@std@@@std@@QEAA@XZ DD imagerel $LN3
	DD	imagerel $LN3+63
	DD	imagerel $unwind$??1?$_String_val@U?$_Simple_types@D@std@@@std@@QEAA@XZ
pdata	ENDS
;	COMDAT pdata
pdata	SEGMENT
$pdata$?_Myptr@?$_String_alloc@U?$_String_base_types@DV?$allocator@D@std@@@std@@@std@@QEAAPEADXZ DD imagerel $LN3
	DD	imagerel $LN3+54
	DD	imagerel $unwind$?_Myptr@?$_String_alloc@U?$_String_base_types@DV?$allocator@D@std@@@std@@@std@@QEAAPEADXZ
pdata	ENDS
;	COMDAT pdata
pdata	SEGMENT
$pdata$?_Myptr@?$_String_alloc@U?$_String_base_types@DV?$allocator@D@std@@@std@@@std@@QEBAPEBDXZ DD imagerel $LN3
	DD	imagerel $LN3+54
	DD	imagerel $unwind$?_Myptr@?$_String_alloc@U?$_String_base_types@DV?$allocator@D@std@@@std@@@std@@QEBAPEBDXZ
pdata	ENDS
;	COMDAT pdata
pdata	SEGMENT
$pdata$??0?$_String_alloc@U?$_String_base_types@DV?$allocator@D@std@@@std@@@std@@QEAA@XZ DD imagerel $LN4
	DD	imagerel $LN4+80
	DD	imagerel $unwind$??0?$_String_alloc@U?$_String_base_types@DV?$allocator@D@std@@@std@@@std@@QEAA@XZ
pdata	ENDS
;	COMDAT pdata
pdata	SEGMENT
$pdata$?dtor$0@?0???0?$_String_alloc@U?$_String_base_types@DV?$allocator@D@std@@@std@@@std@@QEAA@XZ@4HA DD imagerel ?dtor$0@?0???0?$_String_alloc@U?$_String_base_types@DV?$allocator@D@std@@@std@@@std@@QEAA@XZ@4HA
	DD	imagerel ?dtor$0@?0???0?$_String_alloc@U?$_String_base_types@DV?$allocator@D@std@@@std@@@std@@QEAA@XZ@4HA+35
	DD	imagerel $unwind$?dtor$0@?0???0?$_String_alloc@U?$_String_base_types@DV?$allocator@D@std@@@std@@@std@@QEAA@XZ@4HA
pdata	ENDS
;	COMDAT pdata
pdata	SEGMENT
$pdata$??1?$_String_alloc@U?$_String_base_types@DV?$allocator@D@std@@@std@@@std@@QEAA@XZ DD imagerel $LN3
	DD	imagerel $LN3+70
	DD	imagerel $unwind$??1?$_String_alloc@U?$_String_base_types@DV?$allocator@D@std@@@std@@@std@@QEAA@XZ
pdata	ENDS
;	COMDAT pdata
pdata	SEGMENT
$pdata$?_Alloc_proxy@?$_String_alloc@U?$_String_base_types@DV?$allocator@D@std@@@std@@@std@@QEAAXXZ DD imagerel $LN3
	DD	imagerel $LN3+202
	DD	imagerel $unwind$?_Alloc_proxy@?$_String_alloc@U?$_String_base_types@DV?$allocator@D@std@@@std@@@std@@QEAAXXZ
pdata	ENDS
;	COMDAT pdata
pdata	SEGMENT
$pdata$?_Free_proxy@?$_String_alloc@U?$_String_base_types@DV?$allocator@D@std@@@std@@@std@@QEAAXXZ DD imagerel $LN3
	DD	imagerel $LN3+166
	DD	imagerel $unwind$?_Free_proxy@?$_String_alloc@U?$_String_base_types@DV?$allocator@D@std@@@std@@@std@@QEAAXXZ
pdata	ENDS
;	COMDAT pdata
pdata	SEGMENT
$pdata$?_Myproxy@?$_String_alloc@U?$_String_base_types@DV?$allocator@D@std@@@std@@@std@@QEAAAEAPEAU_Container_proxy@2@XZ DD imagerel $LN3
	DD	imagerel $LN3+46
	DD	imagerel $unwind$?_Myproxy@?$_String_alloc@U?$_String_base_types@DV?$allocator@D@std@@@std@@@std@@QEAAAEAPEAU_Container_proxy@2@XZ
pdata	ENDS
;	COMDAT pdata
pdata	SEGMENT
$pdata$?_Orphan_all@?$_String_alloc@U?$_String_base_types@DV?$allocator@D@std@@@std@@@std@@QEAAXXZ DD imagerel $LN3
	DD	imagerel $LN3+54
	DD	imagerel $unwind$?_Orphan_all@?$_String_alloc@U?$_String_base_types@DV?$allocator@D@std@@@std@@@std@@QEAAXXZ
pdata	ENDS
;	COMDAT pdata
pdata	SEGMENT
$pdata$?_Getal@?$_String_alloc@U?$_String_base_types@DV?$allocator@D@std@@@std@@@std@@QEAAAEAU?$_Wrap_alloc@V?$allocator@D@std@@@2@XZ DD imagerel $LN3
	DD	imagerel $LN3+49
	DD	imagerel $unwind$?_Getal@?$_String_alloc@U?$_String_base_types@DV?$allocator@D@std@@@std@@@std@@QEAAAEAU?$_Wrap_alloc@V?$allocator@D@std@@@2@XZ
pdata	ENDS
;	COMDAT pdata
pdata	SEGMENT
$pdata$?_Getal@?$_String_alloc@U?$_String_base_types@DV?$allocator@D@std@@@std@@@std@@QEBAAEBU?$_Wrap_alloc@V?$allocator@D@std@@@2@XZ DD imagerel $LN3
	DD	imagerel $LN3+49
	DD	imagerel $unwind$?_Getal@?$_String_alloc@U?$_String_base_types@DV?$allocator@D@std@@@std@@@std@@QEBAAEBU?$_Wrap_alloc@V?$allocator@D@std@@@2@XZ
pdata	ENDS
;	COMDAT pdata
pdata	SEGMENT
$pdata$?_Get_data@?$_String_alloc@U?$_String_base_types@DV?$allocator@D@std@@@std@@@std@@QEAAAEAV?$_String_val@U?$_Simple_types@D@std@@@2@XZ DD imagerel $LN3
	DD	imagerel $LN3+49
	DD	imagerel $unwind$?_Get_data@?$_String_alloc@U?$_String_base_types@DV?$allocator@D@std@@@std@@@std@@QEAAAEAV?$_String_val@U?$_Simple_types@D@std@@@2@XZ
pdata	ENDS
;	COMDAT pdata
pdata	SEGMENT
$pdata$?_Get_data@?$_String_alloc@U?$_String_base_types@DV?$allocator@D@std@@@std@@@std@@QEBAAEBV?$_String_val@U?$_Simple_types@D@std@@@2@XZ DD imagerel $LN3
	DD	imagerel $LN3+49
	DD	imagerel $unwind$?_Get_data@?$_String_alloc@U?$_String_base_types@DV?$allocator@D@std@@@std@@@std@@QEBAAEBV?$_String_val@U?$_Simple_types@D@std@@@2@XZ
pdata	ENDS
;	COMDAT pdata
pdata	SEGMENT
$pdata$?_Bx@?$_String_alloc@U?$_String_base_types@DV?$allocator@D@std@@@std@@@std@@QEAAAEAT_Bxty@?$_String_val@U?$_Simple_types@D@std@@@2@XZ DD imagerel $LN3
	DD	imagerel $LN3+50
	DD	imagerel $unwind$?_Bx@?$_String_alloc@U?$_String_base_types@DV?$allocator@D@std@@@std@@@std@@QEAAAEAT_Bxty@?$_String_val@U?$_Simple_types@D@std@@@2@XZ
pdata	ENDS
;	COMDAT pdata
pdata	SEGMENT
$pdata$?_Mysize@?$_String_alloc@U?$_String_base_types@DV?$allocator@D@std@@@std@@@std@@QEAAAEA_KXZ DD imagerel $LN3
	DD	imagerel $LN3+50
	DD	imagerel $unwind$?_Mysize@?$_String_alloc@U?$_String_base_types@DV?$allocator@D@std@@@std@@@std@@QEAAAEA_KXZ
pdata	ENDS
;	COMDAT pdata
pdata	SEGMENT
$pdata$?_Mysize@?$_String_alloc@U?$_String_base_types@DV?$allocator@D@std@@@std@@@std@@QEBAAEB_KXZ DD imagerel $LN3
	DD	imagerel $LN3+50
	DD	imagerel $unwind$?_Mysize@?$_String_alloc@U?$_String_base_types@DV?$allocator@D@std@@@std@@@std@@QEBAAEB_KXZ
pdata	ENDS
;	COMDAT pdata
pdata	SEGMENT
$pdata$?_Myres@?$_String_alloc@U?$_String_base_types@DV?$allocator@D@std@@@std@@@std@@QEAAAEA_KXZ DD imagerel $LN3
	DD	imagerel $LN3+50
	DD	imagerel $unwind$?_Myres@?$_String_alloc@U?$_String_base_types@DV?$allocator@D@std@@@std@@@std@@QEAAAEA_KXZ
pdata	ENDS
;	COMDAT pdata
pdata	SEGMENT
$pdata$?_Get_first@?$_Compressed_pair@U?$_Wrap_alloc@V?$allocator@D@std@@@std@@V?$_String_val@U?$_Simple_types@D@std@@@2@$00@std@@QEAAAEAU?$_Wrap_alloc@V?$allocator@D@std@@@2@XZ DD imagerel $LN3
	DD	imagerel $LN3+13
	DD	imagerel $unwind$?_Get_first@?$_Compressed_pair@U?$_Wrap_alloc@V?$allocator@D@std@@@std@@V?$_String_val@U?$_Simple_types@D@std@@@2@$00@std@@QEAAAEAU?$_Wrap_alloc@V?$allocator@D@std@@@2@XZ
pdata	ENDS
;	COMDAT pdata
pdata	SEGMENT
$pdata$?_Get_first@?$_Compressed_pair@U?$_Wrap_alloc@V?$allocator@D@std@@@std@@V?$_String_val@U?$_Simple_types@D@std@@@2@$00@std@@QEBAAEBU?$_Wrap_alloc@V?$allocator@D@std@@@2@XZ DD imagerel $LN3
	DD	imagerel $LN3+13
	DD	imagerel $unwind$?_Get_first@?$_Compressed_pair@U?$_Wrap_alloc@V?$allocator@D@std@@@std@@V?$_String_val@U?$_Simple_types@D@std@@@2@$00@std@@QEBAAEBU?$_Wrap_alloc@V?$allocator@D@std@@@2@XZ
pdata	ENDS
;	COMDAT pdata
pdata	SEGMENT
$pdata$?_Get_second@?$_Compressed_pair@U?$_Wrap_alloc@V?$allocator@D@std@@@std@@V?$_String_val@U?$_Simple_types@D@std@@@2@$00@std@@QEAAAEAV?$_String_val@U?$_Simple_types@D@std@@@2@XZ DD imagerel $LN3
	DD	imagerel $LN3+13
	DD	imagerel $unwind$?_Get_second@?$_Compressed_pair@U?$_Wrap_alloc@V?$allocator@D@std@@@std@@V?$_String_val@U?$_Simple_types@D@std@@@2@$00@std@@QEAAAEAV?$_String_val@U?$_Simple_types@D@std@@@2@XZ
pdata	ENDS
;	COMDAT pdata
pdata	SEGMENT
$pdata$?_Get_second@?$_Compressed_pair@U?$_Wrap_alloc@V?$allocator@D@std@@@std@@V?$_String_val@U?$_Simple_types@D@std@@@2@$00@std@@QEBAAEBV?$_String_val@U?$_Simple_types@D@std@@@2@XZ DD imagerel $LN3
	DD	imagerel $LN3+13
	DD	imagerel $unwind$?_Get_second@?$_Compressed_pair@U?$_Wrap_alloc@V?$allocator@D@std@@@std@@V?$_String_val@U?$_Simple_types@D@std@@@2@$00@std@@QEBAAEBV?$_String_val@U?$_Simple_types@D@std@@@2@XZ
pdata	ENDS
;	COMDAT pdata
pdata	SEGMENT
$pdata$??1?$_Compressed_pair@U?$_Wrap_alloc@V?$allocator@D@std@@@std@@V?$_String_val@U?$_Simple_types@D@std@@@2@$00@std@@QEAA@XZ DD imagerel $LN3
	DD	imagerel $LN3+49
	DD	imagerel $unwind$??1?$_Compressed_pair@U?$_Wrap_alloc@V?$allocator@D@std@@@std@@V?$_String_val@U?$_Simple_types@D@std@@@2@$00@std@@QEAA@XZ
pdata	ENDS
;	COMDAT pdata
pdata	SEGMENT
$pdata$??0?$basic_string@DU?$char_traits@D@std@@V?$allocator@D@2@@std@@QEAA@AEBV01@@Z DD imagerel $LN4
	DD	imagerel $LN4+139
	DD	imagerel $unwind$??0?$basic_string@DU?$char_traits@D@std@@V?$allocator@D@2@@std@@QEAA@AEBV01@@Z
pdata	ENDS
;	COMDAT pdata
pdata	SEGMENT
$pdata$?dtor$0@?0???0?$basic_string@DU?$char_traits@D@std@@V?$allocator@D@2@@std@@QEAA@AEBV01@@Z@4HA DD imagerel ?dtor$0@?0???0?$basic_string@DU?$char_traits@D@std@@V?$allocator@D@2@@std@@QEAA@AEBV01@@Z@4HA
	DD	imagerel ?dtor$0@?0???0?$basic_string@DU?$char_traits@D@std@@V?$allocator@D@2@@std@@QEAA@AEBV01@@Z@4HA+35
	DD	imagerel $unwind$?dtor$0@?0???0?$basic_string@DU?$char_traits@D@std@@V?$allocator@D@2@@std@@QEAA@AEBV01@@Z@4HA
pdata	ENDS
;	COMDAT pdata
pdata	SEGMENT
$pdata$??0?$basic_string@DU?$char_traits@D@std@@V?$allocator@D@2@@std@@QEAA@PEBD@Z DD imagerel $LN4
	DD	imagerel $LN4+97
	DD	imagerel $unwind$??0?$basic_string@DU?$char_traits@D@std@@V?$allocator@D@2@@std@@QEAA@PEBD@Z
pdata	ENDS
;	COMDAT pdata
pdata	SEGMENT
$pdata$?dtor$0@?0???0?$basic_string@DU?$char_traits@D@std@@V?$allocator@D@2@@std@@QEAA@PEBD@Z@4HA DD imagerel ?dtor$0@?0???0?$basic_string@DU?$char_traits@D@std@@V?$allocator@D@2@@std@@QEAA@PEBD@Z@4HA
	DD	imagerel ?dtor$0@?0???0?$basic_string@DU?$char_traits@D@std@@V?$allocator@D@2@@std@@QEAA@PEBD@Z@4HA+35
	DD	imagerel $unwind$?dtor$0@?0???0?$basic_string@DU?$char_traits@D@std@@V?$allocator@D@2@@std@@QEAA@PEBD@Z@4HA
pdata	ENDS
;	COMDAT pdata
pdata	SEGMENT
$pdata$??1?$basic_string@DU?$char_traits@D@std@@V?$allocator@D@2@@std@@QEAA@XZ DD imagerel $LN3
	DD	imagerel $LN3+72
	DD	imagerel $unwind$??1?$basic_string@DU?$char_traits@D@std@@V?$allocator@D@2@@std@@QEAA@XZ
pdata	ENDS
;	COMDAT pdata
pdata	SEGMENT
$pdata$?assign@?$basic_string@DU?$char_traits@D@std@@V?$allocator@D@2@@std@@QEAAAEAV12@AEBV12@_K1@Z DD imagerel $LN6
	DD	imagerel $LN6+247
	DD	imagerel $unwind$?assign@?$basic_string@DU?$char_traits@D@std@@V?$allocator@D@2@@std@@QEAAAEAV12@AEBV12@_K1@Z
pdata	ENDS
;	COMDAT pdata
pdata	SEGMENT
$pdata$?assign@?$basic_string@DU?$char_traits@D@std@@V?$allocator@D@2@@std@@QEAAAEAV12@PEBD_K@Z DD imagerel $LN7
	DD	imagerel $LN7+235
	DD	imagerel $unwind$?assign@?$basic_string@DU?$char_traits@D@std@@V?$allocator@D@2@@std@@QEAAAEAV12@PEBD_K@Z
pdata	ENDS
;	COMDAT pdata
pdata	SEGMENT
$pdata$?assign@?$basic_string@DU?$char_traits@D@std@@V?$allocator@D@2@@std@@QEAAAEAV12@PEBD@Z DD imagerel $LN3
	DD	imagerel $LN3+92
	DD	imagerel $unwind$?assign@?$basic_string@DU?$char_traits@D@std@@V?$allocator@D@2@@std@@QEAAAEAV12@PEBD@Z
pdata	ENDS
;	COMDAT pdata
pdata	SEGMENT
$pdata$?erase@?$basic_string@DU?$char_traits@D@std@@V?$allocator@D@2@@std@@QEAAAEAV12@_K@Z DD imagerel $LN3
	DD	imagerel $LN3+76
	DD	imagerel $unwind$?erase@?$basic_string@DU?$char_traits@D@std@@V?$allocator@D@2@@std@@QEAAAEAV12@_K@Z
pdata	ENDS
;	COMDAT pdata
pdata	SEGMENT
$pdata$?erase@?$basic_string@DU?$char_traits@D@std@@V?$allocator@D@2@@std@@QEAAAEAV12@_K0@Z DD imagerel $LN6
	DD	imagerel $LN6+228
	DD	imagerel $unwind$?erase@?$basic_string@DU?$char_traits@D@std@@V?$allocator@D@2@@std@@QEAAAEAV12@_K0@Z
pdata	ENDS
;	COMDAT pdata
pdata	SEGMENT
$pdata$?c_str@?$basic_string@DU?$char_traits@D@std@@V?$allocator@D@2@@std@@QEBAPEBDXZ DD imagerel $LN3
	DD	imagerel $LN3+56
	DD	imagerel $unwind$?c_str@?$basic_string@DU?$char_traits@D@std@@V?$allocator@D@2@@std@@QEBAPEBDXZ
pdata	ENDS
;	COMDAT pdata
pdata	SEGMENT
$pdata$?max_size@?$basic_string@DU?$char_traits@D@std@@V?$allocator@D@2@@std@@QEBA_KXZ DD imagerel $LN5
	DD	imagerel $LN5+101
	DD	imagerel $unwind$?max_size@?$basic_string@DU?$char_traits@D@std@@V?$allocator@D@2@@std@@QEBA_KXZ
pdata	ENDS
;	COMDAT pdata
pdata	SEGMENT
$pdata$?empty@?$basic_string@DU?$char_traits@D@std@@V?$allocator@D@2@@std@@QEBA_NXZ DD imagerel $LN5
	DD	imagerel $LN5+75
	DD	imagerel $unwind$?empty@?$basic_string@DU?$char_traits@D@std@@V?$allocator@D@2@@std@@QEBA_NXZ
pdata	ENDS
;	COMDAT pdata
pdata	SEGMENT
$pdata$?_Traits_compare@?$basic_string@DU?$char_traits@D@std@@V?$allocator@D@2@@std@@SAHQEBD_K01@Z DD imagerel $LN8
	DD	imagerel $LN8+172
	DD	imagerel $unwind$?_Traits_compare@?$basic_string@DU?$char_traits@D@std@@V?$allocator@D@2@@std@@SAHQEBD_K01@Z
pdata	ENDS
;	COMDAT pdata
pdata	SEGMENT
$pdata$?_Clamp_suffix_size@?$basic_string@DU?$char_traits@D@std@@V?$allocator@D@2@@std@@QEBA_K_K0@Z DD imagerel $LN5
	DD	imagerel $LN5+98
	DD	imagerel $unwind$?_Clamp_suffix_size@?$basic_string@DU?$char_traits@D@std@@V?$allocator@D@2@@std@@QEBA_K_K0@Z
pdata	ENDS
;	COMDAT pdata
pdata	SEGMENT
$pdata$?compare@?$basic_string@DU?$char_traits@D@std@@V?$allocator@D@2@@std@@QEBAHPEBD@Z DD imagerel $LN3
	DD	imagerel $LN3+133
	DD	imagerel $unwind$?compare@?$basic_string@DU?$char_traits@D@std@@V?$allocator@D@2@@std@@QEBAHPEBD@Z
pdata	ENDS
;	COMDAT pdata
pdata	SEGMENT
$pdata$?_Copy@?$basic_string@DU?$char_traits@D@std@@V?$allocator@D@2@@std@@QEAAX_K0@Z DD imagerel $LN23
	DD	imagerel $LN23+609
	DD	imagerel $unwind$?_Copy@?$basic_string@DU?$char_traits@D@std@@V?$allocator@D@2@@std@@QEAAX_K0@Z
pdata	ENDS
;	COMDAT pdata
pdata	SEGMENT
$pdata$?catch$1@?0??_Copy@?$basic_string@DU?$char_traits@D@std@@V?$allocator@D@2@@std@@QEAAX_K0@Z@4HA DD imagerel ?catch$1@?0??_Copy@?$basic_string@DU?$char_traits@D@std@@V?$allocator@D@2@@std@@QEAAX_K0@Z@4HA
	DD	imagerel ?catch$1@?0??_Copy@?$basic_string@DU?$char_traits@D@std@@V?$allocator@D@2@@std@@QEAAX_K0@Z@4HA+109
	DD	imagerel $unwind$?catch$1@?0??_Copy@?$basic_string@DU?$char_traits@D@std@@V?$allocator@D@2@@std@@QEAAX_K0@Z@4HA
pdata	ENDS
;	COMDAT pdata
pdata	SEGMENT
$pdata$?catch$0@?0??_Copy@?$basic_string@DU?$char_traits@D@std@@V?$allocator@D@2@@std@@QEAAX_K0@Z@4HA DD imagerel ?catch$0@?0??_Copy@?$basic_string@DU?$char_traits@D@std@@V?$allocator@D@2@@std@@QEAAX_K0@Z@4HA
	DD	imagerel ?catch$0@?0??_Copy@?$basic_string@DU?$char_traits@D@std@@V?$allocator@D@2@@std@@QEAAX_K0@Z@4HA+61
	DD	imagerel $unwind$?catch$0@?0??_Copy@?$basic_string@DU?$char_traits@D@std@@V?$allocator@D@2@@std@@QEAAX_K0@Z@4HA
pdata	ENDS
;	COMDAT pdata
pdata	SEGMENT
$pdata$?_Eos@?$basic_string@DU?$char_traits@D@std@@V?$allocator@D@2@@std@@QEAAX_K@Z DD imagerel $LN3
	DD	imagerel $LN3+103
	DD	imagerel $unwind$?_Eos@?$basic_string@DU?$char_traits@D@std@@V?$allocator@D@2@@std@@QEAAX_K@Z
pdata	ENDS
;	COMDAT pdata
pdata	SEGMENT
$pdata$?_Grow@?$basic_string@DU?$char_traits@D@std@@V?$allocator@D@2@@std@@QEAA_N_K_N@Z DD imagerel $LN13
	DD	imagerel $LN13+260
	DD	imagerel $unwind$?_Grow@?$basic_string@DU?$char_traits@D@std@@V?$allocator@D@2@@std@@QEAA_N_K_N@Z
pdata	ENDS
;	COMDAT pdata
pdata	SEGMENT
$pdata$?_Inside@?$basic_string@DU?$char_traits@D@std@@V?$allocator@D@2@@std@@QEAA_NPEBD@Z DD imagerel $LN6
	DD	imagerel $LN6+117
	DD	imagerel $unwind$?_Inside@?$basic_string@DU?$char_traits@D@std@@V?$allocator@D@2@@std@@QEAA_NPEBD@Z
pdata	ENDS
;	COMDAT pdata
pdata	SEGMENT
$pdata$?_Tidy@?$basic_string@DU?$char_traits@D@std@@V?$allocator@D@2@@std@@QEAAX_N_K@Z DD imagerel $LN7
	DD	imagerel $LN7+284
	DD	imagerel $unwind$?_Tidy@?$basic_string@DU?$char_traits@D@std@@V?$allocator@D@2@@std@@QEAAX_N_K@Z
pdata	ENDS
;	COMDAT pdata
pdata	SEGMENT
$pdata$?_Xlen@?$basic_string@DU?$char_traits@D@std@@V?$allocator@D@2@@std@@QEBAXXZ DD imagerel $LN3
	DD	imagerel $LN3+49
	DD	imagerel $unwind$?_Xlen@?$basic_string@DU?$char_traits@D@std@@V?$allocator@D@2@@std@@QEBAXXZ
pdata	ENDS
;	COMDAT pdata
pdata	SEGMENT
$pdata$?_Check_offset@?$basic_string@DU?$char_traits@D@std@@V?$allocator@D@2@@std@@QEBAX_K@Z DD imagerel $LN4
	DD	imagerel $LN4+71
	DD	imagerel $unwind$?_Check_offset@?$basic_string@DU?$char_traits@D@std@@V?$allocator@D@2@@std@@QEBAX_K@Z
pdata	ENDS
;	COMDAT pdata
pdata	SEGMENT
$pdata$?_Xran@?$basic_string@DU?$char_traits@D@std@@V?$allocator@D@2@@std@@QEBAXXZ DD imagerel $LN3
	DD	imagerel $LN3+49
	DD	imagerel $unwind$?_Xran@?$basic_string@DU?$char_traits@D@std@@V?$allocator@D@2@@std@@QEBAXXZ
pdata	ENDS
;	COMDAT pdata
pdata	SEGMENT
$pdata$??0_Ref_count_base@std@@IEAA@XZ DD imagerel $LN3
	DD	imagerel $LN3+100
	DD	imagerel $unwind$??0_Ref_count_base@std@@IEAA@XZ
pdata	ENDS
;	COMDAT pdata
pdata	SEGMENT
$pdata$??1_Ref_count_base@std@@UEAA@XZ DD imagerel $LN3
	DD	imagerel $LN3+23
	DD	imagerel $unwind$??1_Ref_count_base@std@@UEAA@XZ
pdata	ENDS
;	COMDAT pdata
pdata	SEGMENT
$pdata$?_Decref@_Ref_count_base@std@@QEAAXXZ DD imagerel $LN4
	DD	imagerel $LN4+87
	DD	imagerel $unwind$?_Decref@_Ref_count_base@std@@QEAAXXZ
pdata	ENDS
;	COMDAT pdata
pdata	SEGMENT
$pdata$?_Decwref@_Ref_count_base@std@@QEAAXXZ DD imagerel $LN4
	DD	imagerel $LN4+78
	DD	imagerel $unwind$?_Decwref@_Ref_count_base@std@@QEAAXXZ
pdata	ENDS
;	COMDAT pdata
pdata	SEGMENT
$pdata$?_Get_deleter@_Ref_count_base@std@@UEBAPEAXAEBVtype_info@@@Z DD imagerel $LN3
	DD	imagerel $LN3+15
	DD	imagerel $unwind$?_Get_deleter@_Ref_count_base@std@@UEBAPEAXAEBVtype_info@@@Z
pdata	ENDS
;	COMDAT pdata
pdata	SEGMENT
$pdata$??_G_Ref_count_base@std@@UEAAPEAXI@Z DD imagerel $LN4
	DD	imagerel $LN4+81
	DD	imagerel $unwind$??_G_Ref_count_base@std@@UEAAPEAXI@Z
pdata	ENDS
;	COMDAT pdata
pdata	SEGMENT
$pdata$?_Enable_shared@std@@YAXPEDX0@Z DD imagerel $LN3
	DD	imagerel $LN3+13
	DD	imagerel $unwind$?_Enable_shared@std@@YAXPEDX0@Z
pdata	ENDS
;	COMDAT pdata
pdata	SEGMENT
$pdata$??RNullDeleter@detail@sycl@cl@@QEAAXPEAX@Z DD imagerel $LN3
	DD	imagerel $LN3+13
	DD	imagerel $unwind$??RNullDeleter@detail@sycl@cl@@QEAAXPEAX@Z
pdata	ENDS
;	COMDAT pdata
pdata	SEGMENT
$pdata$?construct_linear_row_major_index@detail@sycl@cl@@YA_K_K00000@Z DD imagerel $LN3
	DD	imagerel $LN3+65
	DD	imagerel $unwind$?construct_linear_row_major_index@detail@sycl@cl@@YA_K_K00000@Z
pdata	ENDS
;	COMDAT pdata
pdata	SEGMENT
$pdata$??__ESYCL_parallel_for_cpp_bin_spir64_info@?A0xcf7f8366@detail@sycl@cl@@YAXXZ DD imagerel ??__ESYCL_parallel_for_cpp_bin_spir64_info@?A0xcf7f8366@detail@sycl@cl@@YAXXZ
	DD	imagerel ??__ESYCL_parallel_for_cpp_bin_spir64_info@?A0xcf7f8366@detail@sycl@cl@@YAXXZ+68
	DD	imagerel $unwind$??__ESYCL_parallel_for_cpp_bin_spir64_info@?A0xcf7f8366@detail@sycl@cl@@YAXXZ
pdata	ENDS
;	COMDAT pdata
pdata	SEGMENT
$pdata$?size_begin@?$kernel_info@Vassign_elements@@@?A0xcf7f8366@detail@sycl@cl@@SAPEB_KXZ DD imagerel ?size_begin@?$kernel_info@Vassign_elements@@@?A0xcf7f8366@detail@sycl@cl@@SAPEB_KXZ
	DD	imagerel ?size_begin@?$kernel_info@Vassign_elements@@@?A0xcf7f8366@detail@sycl@cl@@SAPEB_KXZ+77
	DD	imagerel $unwind$?size_begin@?$kernel_info@Vassign_elements@@@?A0xcf7f8366@detail@sycl@cl@@SAPEB_KXZ
pdata	ENDS
;	COMDAT pdata
pdata	SEGMENT
$pdata$?size_end@?$kernel_info@Vassign_elements@@@?A0xcf7f8366@detail@sycl@cl@@SAPEB_KXZ DD imagerel ?size_end@?$kernel_info@Vassign_elements@@@?A0xcf7f8366@detail@sycl@cl@@SAPEB_KXZ
	DD	imagerel ?size_end@?$kernel_info@Vassign_elements@@@?A0xcf7f8366@detail@sycl@cl@@SAPEB_KXZ+43
	DD	imagerel $unwind$?size_end@?$kernel_info@Vassign_elements@@@?A0xcf7f8366@detail@sycl@cl@@SAPEB_KXZ
pdata	ENDS
;	COMDAT pdata
pdata	SEGMENT
$pdata$?offset_begin@?$kernel_info@Vassign_elements@@@?A0xcf7f8366@detail@sycl@cl@@SAPEB_KXZ DD imagerel ?offset_begin@?$kernel_info@Vassign_elements@@@?A0xcf7f8366@detail@sycl@cl@@SAPEB_KXZ
	DD	imagerel ?offset_begin@?$kernel_info@Vassign_elements@@@?A0xcf7f8366@detail@sycl@cl@@SAPEB_KXZ+77
	DD	imagerel $unwind$?offset_begin@?$kernel_info@Vassign_elements@@@?A0xcf7f8366@detail@sycl@cl@@SAPEB_KXZ
pdata	ENDS
;	COMDAT pdata
pdata	SEGMENT
$pdata$?offset_end@?$kernel_info@Vassign_elements@@@?A0xcf7f8366@detail@sycl@cl@@SAPEB_KXZ DD imagerel ?offset_end@?$kernel_info@Vassign_elements@@@?A0xcf7f8366@detail@sycl@cl@@SAPEB_KXZ
	DD	imagerel ?offset_end@?$kernel_info@Vassign_elements@@@?A0xcf7f8366@detail@sycl@cl@@SAPEB_KXZ+43
	DD	imagerel $unwind$?offset_end@?$kernel_info@Vassign_elements@@@?A0xcf7f8366@detail@sycl@cl@@SAPEB_KXZ
pdata	ENDS
;	COMDAT pdata
pdata	SEGMENT
$pdata$?kind_begin@?$kernel_info@Vassign_elements@@@?A0xcf7f8366@detail@sycl@cl@@SAPEBHXZ DD imagerel ?kind_begin@?$kernel_info@Vassign_elements@@@?A0xcf7f8366@detail@sycl@cl@@SAPEBHXZ
	DD	imagerel ?kind_begin@?$kernel_info@Vassign_elements@@@?A0xcf7f8366@detail@sycl@cl@@SAPEBHXZ+77
	DD	imagerel $unwind$?kind_begin@?$kernel_info@Vassign_elements@@@?A0xcf7f8366@detail@sycl@cl@@SAPEBHXZ
pdata	ENDS
;	COMDAT pdata
pdata	SEGMENT
$pdata$?kind_end@?$kernel_info@Vassign_elements@@@?A0xcf7f8366@detail@sycl@cl@@SAPEBHXZ DD imagerel ?kind_end@?$kernel_info@Vassign_elements@@@?A0xcf7f8366@detail@sycl@cl@@SAPEBHXZ
	DD	imagerel ?kind_end@?$kernel_info@Vassign_elements@@@?A0xcf7f8366@detail@sycl@cl@@SAPEBHXZ+43
	DD	imagerel $unwind$?kind_end@?$kernel_info@Vassign_elements@@@?A0xcf7f8366@detail@sycl@cl@@SAPEBHXZ
pdata	ENDS
;	COMDAT pdata
pdata	SEGMENT
$pdata$?class_begin@?$kernel_info@Vassign_elements@@@?A0xcf7f8366@detail@sycl@cl@@SAPEBHXZ DD imagerel ?class_begin@?$kernel_info@Vassign_elements@@@?A0xcf7f8366@detail@sycl@cl@@SAPEBHXZ
	DD	imagerel ?class_begin@?$kernel_info@Vassign_elements@@@?A0xcf7f8366@detail@sycl@cl@@SAPEBHXZ+77
	DD	imagerel $unwind$?class_begin@?$kernel_info@Vassign_elements@@@?A0xcf7f8366@detail@sycl@cl@@SAPEBHXZ
pdata	ENDS
;	COMDAT pdata
pdata	SEGMENT
$pdata$?class_end@?$kernel_info@Vassign_elements@@@?A0xcf7f8366@detail@sycl@cl@@SAPEBHXZ DD imagerel ?class_end@?$kernel_info@Vassign_elements@@@?A0xcf7f8366@detail@sycl@cl@@SAPEBHXZ
	DD	imagerel ?class_end@?$kernel_info@Vassign_elements@@@?A0xcf7f8366@detail@sycl@cl@@SAPEBHXZ+43
	DD	imagerel $unwind$?class_end@?$kernel_info@Vassign_elements@@@?A0xcf7f8366@detail@sycl@cl@@SAPEBHXZ
pdata	ENDS
;	COMDAT pdata
pdata	SEGMENT
$pdata$?used_begin@?$kernel_info@Vassign_elements@@@?A0xcf7f8366@detail@sycl@cl@@SAPEB_NXZ DD imagerel ?used_begin@?$kernel_info@Vassign_elements@@@?A0xcf7f8366@detail@sycl@cl@@SAPEB_NXZ
	DD	imagerel ?used_begin@?$kernel_info@Vassign_elements@@@?A0xcf7f8366@detail@sycl@cl@@SAPEB_NXZ+77
	DD	imagerel $unwind$?used_begin@?$kernel_info@Vassign_elements@@@?A0xcf7f8366@detail@sycl@cl@@SAPEB_NXZ
pdata	ENDS
;	COMDAT pdata
pdata	SEGMENT
$pdata$?used_end@?$kernel_info@Vassign_elements@@@?A0xcf7f8366@detail@sycl@cl@@SAPEB_NXZ DD imagerel ?used_end@?$kernel_info@Vassign_elements@@@?A0xcf7f8366@detail@sycl@cl@@SAPEB_NXZ
	DD	imagerel ?used_end@?$kernel_info@Vassign_elements@@@?A0xcf7f8366@detail@sycl@cl@@SAPEB_NXZ+39
	DD	imagerel $unwind$?used_end@?$kernel_info@Vassign_elements@@@?A0xcf7f8366@detail@sycl@cl@@SAPEB_NXZ
pdata	ENDS
;	COMDAT pdata
pdata	SEGMENT
$pdata$?_Get@?$_Ptr_base@Vcontext@detail@sycl@cl@@@std@@QEBAPEAVcontext@detail@sycl@cl@@XZ DD imagerel $LN3
	DD	imagerel $LN3+16
	DD	imagerel $unwind$?_Get@?$_Ptr_base@Vcontext@detail@sycl@cl@@@std@@QEBAPEAVcontext@detail@sycl@cl@@XZ
pdata	ENDS
;	COMDAT pdata
pdata	SEGMENT
$pdata$?_Decref@?$_Ptr_base@Vcontext@detail@sycl@cl@@@std@@QEAAXXZ DD imagerel $LN4
	DD	imagerel $LN4+62
	DD	imagerel $unwind$?_Decref@?$_Ptr_base@Vcontext@detail@sycl@cl@@@std@@QEAAXXZ
pdata	ENDS
;	COMDAT pdata
pdata	SEGMENT
$pdata$??1?$shared_ptr@Vcontext@detail@sycl@cl@@@std@@QEAA@XZ DD imagerel $LN3
	DD	imagerel $LN3+56
	DD	imagerel $unwind$??1?$shared_ptr@Vcontext@detail@sycl@cl@@@std@@QEAA@XZ
pdata	ENDS
;	COMDAT pdata
pdata	SEGMENT
$pdata$?get@?$shared_ptr@Vcontext@detail@sycl@cl@@@std@@QEBAPEAVcontext@detail@sycl@cl@@XZ DD imagerel $LN3
	DD	imagerel $LN3+46
	DD	imagerel $unwind$?get@?$shared_ptr@Vcontext@detail@sycl@cl@@@std@@QEBAPEAVcontext@detail@sycl@cl@@XZ
pdata	ENDS
;	COMDAT pdata
pdata	SEGMENT
$pdata$?_Decref@?$_Ptr_base@Vevent@detail@sycl@cl@@@std@@QEAAXXZ DD imagerel $LN4
	DD	imagerel $LN4+62
	DD	imagerel $unwind$?_Decref@?$_Ptr_base@Vevent@detail@sycl@cl@@@std@@QEAAXXZ
pdata	ENDS
;	COMDAT pdata
pdata	SEGMENT
$pdata$??1?$shared_ptr@Vevent@detail@sycl@cl@@@std@@QEAA@XZ DD imagerel $LN3
	DD	imagerel $LN3+56
	DD	imagerel $unwind$??1?$shared_ptr@Vevent@detail@sycl@cl@@@std@@QEAA@XZ
pdata	ENDS
;	COMDAT pdata
pdata	SEGMENT
$pdata$??0base_allocator@detail@sycl@cl@@QEAA@_N@Z DD imagerel $LN3
	DD	imagerel $LN3+45
	DD	imagerel $unwind$??0base_allocator@detail@sycl@cl@@QEAA@_N@Z
pdata	ENDS
;	COMDAT pdata
pdata	SEGMENT
$pdata$??1base_allocator@detail@sycl@cl@@UEAA@XZ DD imagerel $LN3
	DD	imagerel $LN3+8
	DD	imagerel $unwind$??1base_allocator@detail@sycl@cl@@UEAA@XZ
pdata	ENDS
;	COMDAT pdata
pdata	SEGMENT
$pdata$?is_map_allocator@base_allocator@detail@sycl@cl@@UEBA_NXZ DD imagerel $LN3
	DD	imagerel $LN3+17
	DD	imagerel $unwind$?is_map_allocator@base_allocator@detail@sycl@cl@@UEBA_NXZ
pdata	ENDS
;	COMDAT pdata
pdata	SEGMENT
$pdata$??_Gbase_allocator@detail@sycl@cl@@UEAAPEAXI@Z DD imagerel $LN4
	DD	imagerel $LN4+81
	DD	imagerel $unwind$??_Gbase_allocator@detail@sycl@cl@@UEAAPEAXI@Z
pdata	ENDS
;	COMDAT pdata
pdata	SEGMENT
$pdata$??R?$default_delete@Vbase_allocator@detail@sycl@cl@@@std@@QEBAXPEAVbase_allocator@detail@sycl@cl@@@Z DD imagerel $LN5
	DD	imagerel $LN5+105
	DD	imagerel $unwind$??R?$default_delete@Vbase_allocator@detail@sycl@cl@@@std@@QEBAXPEAVbase_allocator@detail@sycl@cl@@@Z
pdata	ENDS
;	COMDAT pdata
pdata	SEGMENT
$pdata$?get_deleter@?$_Unique_ptr_base@Vbase_allocator@detail@sycl@cl@@U?$default_delete@Vbase_allocator@detail@sycl@cl@@@std@@@std@@QEAAAEAU?$default_delete@Vbase_allocator@detail@sycl@cl@@@2@XZ DD imagerel $LN3
	DD	imagerel $LN3+49
	DD	imagerel $unwind$?get_deleter@?$_Unique_ptr_base@Vbase_allocator@detail@sycl@cl@@U?$default_delete@Vbase_allocator@detail@sycl@cl@@@std@@@std@@QEAAAEAU?$default_delete@Vbase_allocator@detail@sycl@cl@@@2@XZ
pdata	ENDS
;	COMDAT pdata
pdata	SEGMENT
$pdata$?_Myptr@?$_Unique_ptr_base@Vbase_allocator@detail@sycl@cl@@U?$default_delete@Vbase_allocator@detail@sycl@cl@@@std@@@std@@QEBAAEBQEAVbase_allocator@detail@sycl@cl@@XZ DD imagerel $LN3
	DD	imagerel $LN3+49
	DD	imagerel $unwind$?_Myptr@?$_Unique_ptr_base@Vbase_allocator@detail@sycl@cl@@U?$default_delete@Vbase_allocator@detail@sycl@cl@@@std@@@std@@QEBAAEBQEAVbase_allocator@detail@sycl@cl@@XZ
pdata	ENDS
;	COMDAT pdata
pdata	SEGMENT
$pdata$?_Get_first@?$_Compressed_pair@U?$default_delete@Vbase_allocator@detail@sycl@cl@@@std@@PEAVbase_allocator@detail@sycl@cl@@$00@std@@QEAAAEAU?$default_delete@Vbase_allocator@detail@sycl@cl@@@2@XZ DD imagerel $LN3
	DD	imagerel $LN3+13
	DD	imagerel $unwind$?_Get_first@?$_Compressed_pair@U?$default_delete@Vbase_allocator@detail@sycl@cl@@@std@@PEAVbase_allocator@detail@sycl@cl@@$00@std@@QEAAAEAU?$default_delete@Vbase_allocator@detail@sycl@cl@@@2@XZ
pdata	ENDS
;	COMDAT pdata
pdata	SEGMENT
$pdata$?_Get_second@?$_Compressed_pair@U?$default_delete@Vbase_allocator@detail@sycl@cl@@@std@@PEAVbase_allocator@detail@sycl@cl@@$00@std@@QEBAAEBQEAVbase_allocator@detail@sycl@cl@@XZ DD imagerel $LN3
	DD	imagerel $LN3+13
	DD	imagerel $unwind$?_Get_second@?$_Compressed_pair@U?$default_delete@Vbase_allocator@detail@sycl@cl@@@std@@PEAVbase_allocator@detail@sycl@cl@@$00@std@@QEBAAEBQEAVbase_allocator@detail@sycl@cl@@XZ
pdata	ENDS
;	COMDAT pdata
pdata	SEGMENT
$pdata$??1?$unique_ptr@Vbase_allocator@detail@sycl@cl@@U?$default_delete@Vbase_allocator@detail@sycl@cl@@@std@@@std@@QEAA@XZ DD imagerel $LN4
	DD	imagerel $LN4+92
	DD	imagerel $unwind$??1?$unique_ptr@Vbase_allocator@detail@sycl@cl@@U?$default_delete@Vbase_allocator@detail@sycl@cl@@@std@@@std@@QEAA@XZ
pdata	ENDS
;	COMDAT pdata
pdata	SEGMENT
$pdata$?get@?$unique_ptr@Vbase_allocator@detail@sycl@cl@@U?$default_delete@Vbase_allocator@detail@sycl@cl@@@std@@@std@@QEBAPEAVbase_allocator@detail@sycl@cl@@XZ DD imagerel $LN3
	DD	imagerel $LN3+49
	DD	imagerel $unwind$?get@?$unique_ptr@Vbase_allocator@detail@sycl@cl@@U?$default_delete@Vbase_allocator@detail@sycl@cl@@@std@@@std@@QEBAPEAVbase_allocator@detail@sycl@cl@@XZ
pdata	ENDS
;	COMDAT pdata
pdata	SEGMENT
$pdata$??Aindex_array@detail@sycl@cl@@QEAAAEA_KI@Z DD imagerel $LN4
	DD	imagerel $LN4+116
	DD	imagerel $unwind$??Aindex_array@detail@sycl@cl@@QEAAAEA_KI@Z
pdata	ENDS
;	COMDAT pdata
pdata	SEGMENT
$pdata$??Aindex_array@detail@sycl@cl@@QEBA_KI@Z DD imagerel $LN4
	DD	imagerel $LN4+116
	DD	imagerel $unwind$??Aindex_array@detail@sycl@cl@@QEBA_KI@Z
pdata	ENDS
;	COMDAT pdata
pdata	SEGMENT
$pdata$??0index_array_base@detail@sycl@cl@@QEAA@_K00@Z DD imagerel $LN3
	DD	imagerel $LN3+131
	DD	imagerel $unwind$??0index_array_base@detail@sycl@cl@@QEAA@_K00@Z
pdata	ENDS
;	COMDAT pdata
pdata	SEGMENT
$pdata$??Aindex_array_base@detail@sycl@cl@@QEAAAEA_KI@Z DD imagerel $LN4
	DD	imagerel $LN4+120
	DD	imagerel $unwind$??Aindex_array_base@detail@sycl@cl@@QEAAAEA_KI@Z
pdata	ENDS
;	COMDAT pdata
pdata	SEGMENT
$pdata$??Bindex_array_base@detail@sycl@cl@@QEBA?AVindex_array@123@XZ DD imagerel $LN3
	DD	imagerel $LN3+37
	DD	imagerel $unwind$??Bindex_array_base@detail@sycl@cl@@QEBA?AVindex_array@123@XZ
pdata	ENDS
;	COMDAT pdata
pdata	SEGMENT
$pdata$??0nd_range_base@detail@sycl@cl@@QEAA@Vindex_array@123@00@Z DD imagerel $LN3
	DD	imagerel $LN3+320
	DD	imagerel $unwind$??0nd_range_base@detail@sycl@cl@@QEAA@Vindex_array@123@00@Z
pdata	ENDS
;	COMDAT pdata
pdata	SEGMENT
$pdata$??0?$index_array_operators@$00Vrange@sycl@cl@@@detail@sycl@cl@@IEAA@_K00@Z DD imagerel $LN3
	DD	imagerel $LN3+81
	DD	imagerel $unwind$??0?$index_array_operators@$00Vrange@sycl@cl@@@detail@sycl@cl@@IEAA@_K00@Z
pdata	ENDS
;	COMDAT pdata
pdata	SEGMENT
$pdata$??1?$index_array_operators@$00Vrange@sycl@cl@@@detail@sycl@cl@@QEAA@XZ DD imagerel $LN3
	DD	imagerel $LN3+8
	DD	imagerel $unwind$??1?$index_array_operators@$00Vrange@sycl@cl@@@detail@sycl@cl@@QEAA@XZ
pdata	ENDS
;	COMDAT pdata
pdata	SEGMENT
$pdata$??0?$range@$00@sycl@cl@@QEAA@_K@Z DD imagerel $LN4
	DD	imagerel $LN4+73
	DD	imagerel $unwind$??0?$range@$00@sycl@cl@@QEAA@_K@Z
pdata	ENDS
;	COMDAT pdata
pdata	SEGMENT
$pdata$??0?$range@$00@sycl@cl@@QEAA@AEBVindex_array@detail@12@@Z DD imagerel $LN4
	DD	imagerel $LN4+71
	DD	imagerel $unwind$??0?$range@$00@sycl@cl@@QEAA@AEBVindex_array@detail@12@@Z
pdata	ENDS
;	COMDAT pdata
pdata	SEGMENT
$pdata$??1?$range@$00@sycl@cl@@QEAA@XZ DD imagerel $LN3
	DD	imagerel $LN3+46
	DD	imagerel $unwind$??1?$range@$00@sycl@cl@@QEAA@XZ
pdata	ENDS
;	COMDAT pdata
pdata	SEGMENT
$pdata$??0?$index_array_operators@$00Vid@sycl@cl@@@detail@sycl@cl@@IEAA@_K00@Z DD imagerel $LN3
	DD	imagerel $LN3+81
	DD	imagerel $unwind$??0?$index_array_operators@$00Vid@sycl@cl@@@detail@sycl@cl@@IEAA@_K00@Z
pdata	ENDS
;	COMDAT pdata
pdata	SEGMENT
$pdata$??1?$index_array_operators@$00Vid@sycl@cl@@@detail@sycl@cl@@QEAA@XZ DD imagerel $LN3
	DD	imagerel $LN3+8
	DD	imagerel $unwind$??1?$index_array_operators@$00Vid@sycl@cl@@@detail@sycl@cl@@QEAA@XZ
pdata	ENDS
;	COMDAT pdata
pdata	SEGMENT
$pdata$??0?$id@$00@sycl@cl@@QEAA@XZ DD imagerel $LN4
	DD	imagerel $LN4+59
	DD	imagerel $unwind$??0?$id@$00@sycl@cl@@QEAA@XZ
pdata	ENDS
;	COMDAT pdata
pdata	SEGMENT
$pdata$??0?$id@$00@sycl@cl@@QEAA@_K@Z DD imagerel $LN4
	DD	imagerel $LN4+67
	DD	imagerel $unwind$??0?$id@$00@sycl@cl@@QEAA@_K@Z
pdata	ENDS
;	COMDAT pdata
pdata	SEGMENT
$pdata$??0?$id@$00@sycl@cl@@QEAA@AEBVindex_array@detail@12@@Z DD imagerel $LN4
	DD	imagerel $LN4+71
	DD	imagerel $unwind$??0?$id@$00@sycl@cl@@QEAA@AEBVindex_array@detail@12@@Z
pdata	ENDS
;	COMDAT pdata
pdata	SEGMENT
$pdata$??1?$id@$00@sycl@cl@@QEAA@XZ DD imagerel $LN3
	DD	imagerel $LN3+46
	DD	imagerel $unwind$??1?$id@$00@sycl@cl@@QEAA@XZ
pdata	ENDS
;	COMDAT pdata
pdata	SEGMENT
$pdata$??0?$_Func_class@XVexception_list@sycl@cl@@@std@@QEAA@XZ DD imagerel $LN3
	DD	imagerel $LN3+53
	DD	imagerel $unwind$??0?$_Func_class@XVexception_list@sycl@cl@@@std@@QEAA@XZ
pdata	ENDS
;	COMDAT pdata
pdata	SEGMENT
$pdata$??1?$_Func_class@XVexception_list@sycl@cl@@@std@@QEAA@XZ DD imagerel $LN3
	DD	imagerel $LN3+46
	DD	imagerel $unwind$??1?$_Func_class@XVexception_list@sycl@cl@@@std@@QEAA@XZ
pdata	ENDS
;	COMDAT pdata
pdata	SEGMENT
$pdata$?_Empty@?$_Func_class@XVexception_list@sycl@cl@@@std@@IEBA_NXZ DD imagerel $LN5
	DD	imagerel $LN5+74
	DD	imagerel $unwind$?_Empty@?$_Func_class@XVexception_list@sycl@cl@@@std@@IEBA_NXZ
pdata	ENDS
;	COMDAT pdata
pdata	SEGMENT
$pdata$?_Tidy@?$_Func_class@XVexception_list@sycl@cl@@@std@@IEAAXXZ DD imagerel $LN6
	DD	imagerel $LN6+130
	DD	imagerel $unwind$?_Tidy@?$_Func_class@XVexception_list@sycl@cl@@@std@@IEAAXXZ
pdata	ENDS
;	COMDAT pdata
pdata	SEGMENT
$pdata$?_Local@?$_Func_class@XVexception_list@sycl@cl@@@std@@AEBA_NXZ DD imagerel $LN5
	DD	imagerel $LN5+94
	DD	imagerel $unwind$?_Local@?$_Func_class@XVexception_list@sycl@cl@@@std@@AEBA_NXZ
pdata	ENDS
;	COMDAT pdata
pdata	SEGMENT
$pdata$?_Getimpl@?$_Func_class@XVexception_list@sycl@cl@@@std@@AEBAPEAV?$_Func_base@XVexception_list@sycl@cl@@@2@XZ DD imagerel $LN3
	DD	imagerel $LN3+26
	DD	imagerel $unwind$?_Getimpl@?$_Func_class@XVexception_list@sycl@cl@@@std@@AEBAPEAV?$_Func_base@XVexception_list@sycl@cl@@@2@XZ
pdata	ENDS
;	COMDAT pdata
pdata	SEGMENT
$pdata$?_Set@?$_Func_class@XVexception_list@sycl@cl@@@std@@AEAAXPEAV?$_Func_base@XVexception_list@sycl@cl@@@2@@Z DD imagerel $LN3
	DD	imagerel $LN3+36
	DD	imagerel $unwind$?_Set@?$_Func_class@XVexception_list@sycl@cl@@@std@@AEAAXPEAV?$_Func_base@XVexception_list@sycl@cl@@@2@@Z
pdata	ENDS
;	COMDAT pdata
pdata	SEGMENT
$pdata$?_Getspace@?$_Func_class@XVexception_list@sycl@cl@@@std@@AEAAPEAXXZ DD imagerel $LN3
	DD	imagerel $LN3+13
	DD	imagerel $unwind$?_Getspace@?$_Func_class@XVexception_list@sycl@cl@@@std@@AEAAPEAXXZ
pdata	ENDS
;	COMDAT pdata
pdata	SEGMENT
$pdata$?_Getspace@?$_Func_class@XVexception_list@sycl@cl@@@std@@AEBAPEBXXZ DD imagerel $LN3
	DD	imagerel $LN3+13
	DD	imagerel $unwind$?_Getspace@?$_Func_class@XVexception_list@sycl@cl@@@std@@AEBAPEBXXZ
pdata	ENDS
;	COMDAT pdata
pdata	SEGMENT
$pdata$??$forward@Vexception_list@sycl@cl@@@std@@YA$$QEAVexception_list@sycl@cl@@AEAV123@@Z DD imagerel $LN3
	DD	imagerel $LN3+13
	DD	imagerel $unwind$??$forward@Vexception_list@sycl@cl@@@std@@YA$$QEAVexception_list@sycl@cl@@AEAV123@@Z
pdata	ENDS
pdata	SEGMENT
$pdata$main DD	imagerel $LN22
	DD	imagerel $LN22+762
	DD	imagerel $unwind$main
pdata	ENDS
pdata	SEGMENT
$pdata$main$dtor$0 DD imagerel main$dtor$0
	DD	imagerel main$dtor$0+39
	DD	imagerel $unwind$main$dtor$0
$pdata$main$dtor$2 DD imagerel main$dtor$2
	DD	imagerel main$dtor$2+39
	DD	imagerel $unwind$main$dtor$2
$pdata$main$dtor$3 DD imagerel main$dtor$3
	DD	imagerel main$dtor$3+39
	DD	imagerel $unwind$main$dtor$3
$pdata$main$dtor$4 DD imagerel main$dtor$4
	DD	imagerel main$dtor$4+38
	DD	imagerel $unwind$main$dtor$4
$pdata$main$dtor$5 DD imagerel main$dtor$5
	DD	imagerel main$dtor$5+38
	DD	imagerel $unwind$main$dtor$5
$pdata$main$catch$8 DD imagerel main$catch$8
	DD	imagerel main$catch$8+124
	DD	imagerel $unwind$main$catch$8
$pdata$main$dtor$7 DD imagerel main$dtor$7
	DD	imagerel main$dtor$7+39
	DD	imagerel $unwind$main$dtor$7
pdata	ENDS
;	COMDAT pdata
pdata	SEGMENT
$pdata$??R<lambda_39ab90f1c5f9e6f03c358ede9dc45e4d>@@QEBAXVexception_list@sycl@cl@@@Z DD imagerel ??R<lambda_39ab90f1c5f9e6f03c358ede9dc45e4d>@@QEBAXVexception_list@sycl@cl@@@Z
	DD	imagerel ??R<lambda_39ab90f1c5f9e6f03c358ede9dc45e4d>@@QEBAXVexception_list@sycl@cl@@@Z+300
	DD	imagerel $unwind$??R<lambda_39ab90f1c5f9e6f03c358ede9dc45e4d>@@QEBAXVexception_list@sycl@cl@@@Z
pdata	ENDS
;	COMDAT pdata
pdata	SEGMENT
$pdata$?dtor$0@?0???R<lambda_39ab90f1c5f9e6f03c358ede9dc45e4d>@@QEBAXVexception_list@sycl@cl@@@Z@4HA DD imagerel ?dtor$0@?0???R<lambda_39ab90f1c5f9e6f03c358ede9dc45e4d>@@QEBAXVexception_list@sycl@cl@@@Z@4HA
	DD	imagerel ?dtor$0@?0???R<lambda_39ab90f1c5f9e6f03c358ede9dc45e4d>@@QEBAXVexception_list@sycl@cl@@@Z@4HA+39
	DD	imagerel $unwind$?dtor$0@?0???R<lambda_39ab90f1c5f9e6f03c358ede9dc45e4d>@@QEBAXVexception_list@sycl@cl@@@Z@4HA
pdata	ENDS
;	COMDAT pdata
pdata	SEGMENT
$pdata$?dtor$1@?0???R<lambda_39ab90f1c5f9e6f03c358ede9dc45e4d>@@QEBAXVexception_list@sycl@cl@@@Z@4HA DD imagerel ?dtor$1@?0???R<lambda_39ab90f1c5f9e6f03c358ede9dc45e4d>@@QEBAXVexception_list@sycl@cl@@@Z@4HA
	DD	imagerel ?dtor$1@?0???R<lambda_39ab90f1c5f9e6f03c358ede9dc45e4d>@@QEBAXVexception_list@sycl@cl@@@Z@4HA+35
	DD	imagerel $unwind$?dtor$1@?0???R<lambda_39ab90f1c5f9e6f03c358ede9dc45e4d>@@QEBAXVexception_list@sycl@cl@@@Z@4HA
pdata	ENDS
;	COMDAT pdata
pdata	SEGMENT
$pdata$?dtor$2@?0???R<lambda_39ab90f1c5f9e6f03c358ede9dc45e4d>@@QEBAXVexception_list@sycl@cl@@@Z@4HA DD imagerel ?dtor$2@?0???R<lambda_39ab90f1c5f9e6f03c358ede9dc45e4d>@@QEBAXVexception_list@sycl@cl@@@Z@4HA
	DD	imagerel ?dtor$2@?0???R<lambda_39ab90f1c5f9e6f03c358ede9dc45e4d>@@QEBAXVexception_list@sycl@cl@@@Z@4HA+35
	DD	imagerel $unwind$?dtor$2@?0???R<lambda_39ab90f1c5f9e6f03c358ede9dc45e4d>@@QEBAXVexception_list@sycl@cl@@@Z@4HA
pdata	ENDS
;	COMDAT pdata
pdata	SEGMENT
$pdata$?dtor$3@?0???R<lambda_39ab90f1c5f9e6f03c358ede9dc45e4d>@@QEBAXVexception_list@sycl@cl@@@Z@4HA DD imagerel ?dtor$3@?0???R<lambda_39ab90f1c5f9e6f03c358ede9dc45e4d>@@QEBAXVexception_list@sycl@cl@@@Z@4HA
	DD	imagerel ?dtor$3@?0???R<lambda_39ab90f1c5f9e6f03c358ede9dc45e4d>@@QEBAXVexception_list@sycl@cl@@@Z@4HA+38
	DD	imagerel $unwind$?dtor$3@?0???R<lambda_39ab90f1c5f9e6f03c358ede9dc45e4d>@@QEBAXVexception_list@sycl@cl@@@Z@4HA
pdata	ENDS
;	COMDAT pdata
pdata	SEGMENT
$pdata$?catch$5@?0???R<lambda_39ab90f1c5f9e6f03c358ede9dc45e4d>@@QEBAXVexception_list@sycl@cl@@@Z@4HA DD imagerel ?catch$5@?0???R<lambda_39ab90f1c5f9e6f03c358ede9dc45e4d>@@QEBAXVexception_list@sycl@cl@@@Z@4HA
	DD	imagerel ?catch$5@?0???R<lambda_39ab90f1c5f9e6f03c358ede9dc45e4d>@@QEBAXVexception_list@sycl@cl@@@Z@4HA+70
	DD	imagerel $unwind$?catch$5@?0???R<lambda_39ab90f1c5f9e6f03c358ede9dc45e4d>@@QEBAXVexception_list@sycl@cl@@@Z@4HA
pdata	ENDS
;	COMDAT pdata
pdata	SEGMENT
$pdata$??1?$_Iterator012@Urandom_access_iterator_tag@std@@Vexception_ptr@2@_JPEBV32@AEBV32@U_Iterator_base12@2@@std@@QEAA@XZ DD imagerel $LN3
	DD	imagerel $LN3+46
	DD	imagerel $unwind$??1?$_Iterator012@Urandom_access_iterator_tag@std@@Vexception_ptr@2@_JPEBV32@AEBV32@U_Iterator_base12@2@@std@@QEAA@XZ
pdata	ENDS
;	COMDAT pdata
pdata	SEGMENT
$pdata$??D?$_Vector_const_iterator@V?$_Vector_val@U?$_Simple_types@Vexception_ptr@std@@@std@@@std@@@std@@QEBAAEBVexception_ptr@1@XZ DD imagerel $LN7
	DD	imagerel $LN7+269
	DD	imagerel $unwind$??D?$_Vector_const_iterator@V?$_Vector_val@U?$_Simple_types@Vexception_ptr@std@@@std@@@std@@@std@@QEBAAEBVexception_ptr@1@XZ
pdata	ENDS
;	COMDAT pdata
pdata	SEGMENT
$pdata$??E?$_Vector_const_iterator@V?$_Vector_val@U?$_Simple_types@Vexception_ptr@std@@@std@@@std@@@std@@QEAAAEAV01@XZ DD imagerel $LN7
	DD	imagerel $LN7+267
	DD	imagerel $unwind$??E?$_Vector_const_iterator@V?$_Vector_val@U?$_Simple_types@Vexception_ptr@std@@@std@@@std@@@std@@QEAAAEAV01@XZ
pdata	ENDS
;	COMDAT pdata
pdata	SEGMENT
$pdata$??8?$_Vector_const_iterator@V?$_Vector_val@U?$_Simple_types@Vexception_ptr@std@@@std@@@std@@@std@@QEBA_NAEBV01@@Z DD imagerel $LN5
	DD	imagerel $LN5+99
	DD	imagerel $unwind$??8?$_Vector_const_iterator@V?$_Vector_val@U?$_Simple_types@Vexception_ptr@std@@@std@@@std@@@std@@QEBA_NAEBV01@@Z
pdata	ENDS
;	COMDAT pdata
pdata	SEGMENT
$pdata$??9?$_Vector_const_iterator@V?$_Vector_val@U?$_Simple_types@Vexception_ptr@std@@@std@@@std@@@std@@QEBA_NAEBV01@@Z DD imagerel $LN5
	DD	imagerel $LN5+86
	DD	imagerel $unwind$??9?$_Vector_const_iterator@V?$_Vector_val@U?$_Simple_types@Vexception_ptr@std@@@std@@@std@@@std@@QEBA_NAEBV01@@Z
pdata	ENDS
;	COMDAT pdata
pdata	SEGMENT
$pdata$?_Compat@?$_Vector_const_iterator@V?$_Vector_val@U?$_Simple_types@Vexception_ptr@std@@@std@@@std@@@std@@QEBAXAEBV12@@Z DD imagerel $LN6
	DD	imagerel $LN6+225
	DD	imagerel $unwind$?_Compat@?$_Vector_const_iterator@V?$_Vector_val@U?$_Simple_types@Vexception_ptr@std@@@std@@@std@@@std@@QEBAXAEBV12@@Z
pdata	ENDS
;	COMDAT pdata
pdata	SEGMENT
$pdata$??1?$_Vector_const_iterator@V?$_Vector_val@U?$_Simple_types@Vexception_ptr@std@@@std@@@std@@@std@@QEAA@XZ DD imagerel $LN3
	DD	imagerel $LN3+46
	DD	imagerel $unwind$??1?$_Vector_const_iterator@V?$_Vector_val@U?$_Simple_types@Vexception_ptr@std@@@std@@@std@@@std@@QEAA@XZ
pdata	ENDS
;	COMDAT pdata
pdata	SEGMENT
$pdata$??$?6U?$char_traits@D@std@@@std@@YAAEAV?$basic_ostream@DU?$char_traits@D@std@@@0@AEAV10@PEBD@Z DD imagerel $LN25
	DD	imagerel $LN25+1048
	DD	imagerel $unwind$??$?6U?$char_traits@D@std@@@std@@YAAEAV?$basic_ostream@DU?$char_traits@D@std@@@0@AEAV10@PEBD@Z
pdata	ENDS
;	COMDAT pdata
pdata	SEGMENT
$pdata$?dtor$0@?0???$?6U?$char_traits@D@std@@@std@@YAAEAV?$basic_ostream@DU?$char_traits@D@std@@@0@AEAV10@PEBD@Z@4HA DD imagerel ?dtor$0@?0???$?6U?$char_traits@D@std@@@std@@YAAEAV?$basic_ostream@DU?$char_traits@D@std@@@0@AEAV10@PEBD@Z@4HA
	DD	imagerel ?dtor$0@?0???$?6U?$char_traits@D@std@@@std@@YAAEAV?$basic_ostream@DU?$char_traits@D@std@@@0@AEAV10@PEBD@Z@4HA+35
	DD	imagerel $unwind$?dtor$0@?0???$?6U?$char_traits@D@std@@@std@@YAAEAV?$basic_ostream@DU?$char_traits@D@std@@@0@AEAV10@PEBD@Z@4HA
pdata	ENDS
;	COMDAT pdata
pdata	SEGMENT
$pdata$?catch$1@?0???$?6U?$char_traits@D@std@@@std@@YAAEAV?$basic_ostream@DU?$char_traits@D@std@@@0@AEAV10@PEBD@Z@4HA DD imagerel ?catch$1@?0???$?6U?$char_traits@D@std@@@std@@YAAEAV?$basic_ostream@DU?$char_traits@D@std@@@0@AEAV10@PEBD@Z@4HA
	DD	imagerel ?catch$1@?0???$?6U?$char_traits@D@std@@@std@@YAAEAV?$basic_ostream@DU?$char_traits@D@std@@@0@AEAV10@PEBD@Z@4HA+79
	DD	imagerel $unwind$?catch$1@?0???$?6U?$char_traits@D@std@@@std@@YAAEAV?$basic_ostream@DU?$char_traits@D@std@@@0@AEAV10@PEBD@Z@4HA
pdata	ENDS
;	COMDAT pdata
pdata	SEGMENT
$pdata$??$forward@AEAV<lambda_39ab90f1c5f9e6f03c358ede9dc45e4d>@@@std@@YAAEAV<lambda_39ab90f1c5f9e6f03c358ede9dc45e4d>@@AEAV1@@Z DD imagerel $LN3
	DD	imagerel $LN3+13
	DD	imagerel $unwind$??$forward@AEAV<lambda_39ab90f1c5f9e6f03c358ede9dc45e4d>@@@std@@YAAEAV<lambda_39ab90f1c5f9e6f03c358ede9dc45e4d>@@AEAV1@@Z
pdata	ENDS
;	COMDAT pdata
pdata	SEGMENT
$pdata$??$_Call@AEAV<lambda_39ab90f1c5f9e6f03c358ede9dc45e4d>@@Vexception_list@sycl@cl@@@_Invoker_functor@std@@SAXAEAV<lambda_39ab90f1c5f9e6f03c358ede9dc45e4d>@@$$QEAVexception_list@sycl@cl@@@Z DD imagerel $LN4
	DD	imagerel $LN4+103
	DD	imagerel $unwind$??$_Call@AEAV<lambda_39ab90f1c5f9e6f03c358ede9dc45e4d>@@Vexception_list@sycl@cl@@@_Invoker_functor@std@@SAXAEAV<lambda_39ab90f1c5f9e6f03c358ede9dc45e4d>@@$$QEAVexception_list@sycl@cl@@@Z
pdata	ENDS
;	COMDAT pdata
pdata	SEGMENT
$pdata$??$invoke@AEAV<lambda_39ab90f1c5f9e6f03c358ede9dc45e4d>@@Vexception_list@sycl@cl@@@std@@YAXAEAV<lambda_39ab90f1c5f9e6f03c358ede9dc45e4d>@@$$QEAVexception_list@sycl@cl@@@Z DD imagerel $LN3
	DD	imagerel $LN3+82
	DD	imagerel $unwind$??$invoke@AEAV<lambda_39ab90f1c5f9e6f03c358ede9dc45e4d>@@Vexception_list@sycl@cl@@@std@@YAXAEAV<lambda_39ab90f1c5f9e6f03c358ede9dc45e4d>@@$$QEAVexception_list@sycl@cl@@@Z
pdata	ENDS
;	COMDAT pdata
pdata	SEGMENT
$pdata$??$?0V<lambda_39ab90f1c5f9e6f03c358ede9dc45e4d>@@XX@?$function@$$A6AXVexception_list@sycl@cl@@@Z@std@@QEAA@V<lambda_39ab90f1c5f9e6f03c358ede9dc45e4d>@@@Z DD imagerel $LN4
	DD	imagerel $LN4+89
	DD	imagerel $unwind$??$?0V<lambda_39ab90f1c5f9e6f03c358ede9dc45e4d>@@XX@?$function@$$A6AXVexception_list@sycl@cl@@@Z@std@@QEAA@V<lambda_39ab90f1c5f9e6f03c358ede9dc45e4d>@@@Z
pdata	ENDS
;	COMDAT pdata
pdata	SEGMENT
$pdata$?dtor$0@?0???$?0V<lambda_39ab90f1c5f9e6f03c358ede9dc45e4d>@@XX@?$function@$$A6AXVexception_list@sycl@cl@@@Z@std@@QEAA@V<lambda_39ab90f1c5f9e6f03c358ede9dc45e4d>@@@Z@4HA DD imagerel ?dtor$0@?0???$?0V<lambda_39ab90f1c5f9e6f03c358ede9dc45e4d>@@XX@?$function@$$A6AXVexception_list@sycl@cl@@@Z@std@@QEAA@V<lambda_39ab90f1c5f9e6f03c358ede9dc45e4d>@@@Z@4HA
	DD	imagerel ?dtor$0@?0???$?0V<lambda_39ab90f1c5f9e6f03c358ede9dc45e4d>@@XX@?$function@$$A6AXVexception_list@sycl@cl@@@Z@std@@QEAA@V<lambda_39ab90f1c5f9e6f03c358ede9dc45e4d>@@@Z@4HA+35
	DD	imagerel $unwind$?dtor$0@?0???$?0V<lambda_39ab90f1c5f9e6f03c358ede9dc45e4d>@@XX@?$function@$$A6AXVexception_list@sycl@cl@@@Z@std@@QEAA@V<lambda_39ab90f1c5f9e6f03c358ede9dc45e4d>@@@Z@4HA
pdata	ENDS
;	COMDAT pdata
pdata	SEGMENT
$pdata$??0?$buffer@H$00V?$aligned_allocator@H@aligned_mem@detail@sycl@cl@@@sycl@cl@@QEAA@PEAHAEBV?$range@$00@12@AEBVproperty_list@codeplay@12@@Z DD imagerel $LN6
	DD	imagerel $LN6+337
	DD	imagerel $unwind$??0?$buffer@H$00V?$aligned_allocator@H@aligned_mem@detail@sycl@cl@@@sycl@cl@@QEAA@PEAHAEBV?$range@$00@12@AEBVproperty_list@codeplay@12@@Z
pdata	ENDS
;	COMDAT pdata
pdata	SEGMENT
$pdata$?dtor$0@?0???0?$buffer@H$00V?$aligned_allocator@H@aligned_mem@detail@sycl@cl@@@sycl@cl@@QEAA@PEAHAEBV?$range@$00@12@AEBVproperty_list@codeplay@12@@Z@4HA DD imagerel ?dtor$0@?0???0?$buffer@H$00V?$aligned_allocator@H@aligned_mem@detail@sycl@cl@@@sycl@cl@@QEAA@PEAHAEBV?$range@$00@12@AEBVproperty_list@codeplay@12@@Z@4HA
	DD	imagerel ?dtor$0@?0???0?$buffer@H$00V?$aligned_allocator@H@aligned_mem@detail@sycl@cl@@@sycl@cl@@QEAA@PEAHAEBV?$range@$00@12@AEBVproperty_list@codeplay@12@@Z@4HA+35
	DD	imagerel $unwind$?dtor$0@?0???0?$buffer@H$00V?$aligned_allocator@H@aligned_mem@detail@sycl@cl@@@sycl@cl@@QEAA@PEAHAEBV?$range@$00@12@AEBVproperty_list@codeplay@12@@Z@4HA
pdata	ENDS
;	COMDAT pdata
pdata	SEGMENT
$pdata$?dtor$1@?0???0?$buffer@H$00V?$aligned_allocator@H@aligned_mem@detail@sycl@cl@@@sycl@cl@@QEAA@PEAHAEBV?$range@$00@12@AEBVproperty_list@codeplay@12@@Z@4HA DD imagerel ?dtor$1@?0???0?$buffer@H$00V?$aligned_allocator@H@aligned_mem@detail@sycl@cl@@@sycl@cl@@QEAA@PEAHAEBV?$range@$00@12@AEBVproperty_list@codeplay@12@@Z@4HA
	DD	imagerel ?dtor$1@?0???0?$buffer@H$00V?$aligned_allocator@H@aligned_mem@detail@sycl@cl@@@sycl@cl@@QEAA@PEAHAEBV?$range@$00@12@AEBVproperty_list@codeplay@12@@Z@4HA+35
	DD	imagerel $unwind$?dtor$1@?0???0?$buffer@H$00V?$aligned_allocator@H@aligned_mem@detail@sycl@cl@@@sycl@cl@@QEAA@PEAHAEBV?$range@$00@12@AEBVproperty_list@codeplay@12@@Z@4HA
pdata	ENDS
;	COMDAT pdata
pdata	SEGMENT
$pdata$??1?$buffer@H$00V?$aligned_allocator@H@aligned_mem@detail@sycl@cl@@@sycl@cl@@UEAA@XZ DD imagerel $LN3
	DD	imagerel $LN3+47
	DD	imagerel $unwind$??1?$buffer@H$00V?$aligned_allocator@H@aligned_mem@detail@sycl@cl@@@sycl@cl@@UEAA@XZ
pdata	ENDS
;	COMDAT pdata
pdata	SEGMENT
$pdata$??_G?$buffer@H$00V?$aligned_allocator@H@aligned_mem@detail@sycl@cl@@@sycl@cl@@UEAAPEAXI@Z DD imagerel $LN4
	DD	imagerel $LN4+81
	DD	imagerel $unwind$??_G?$buffer@H$00V?$aligned_allocator@H@aligned_mem@detail@sycl@cl@@@sycl@cl@@UEAAPEAXI@Z
pdata	ENDS
;	COMDAT pdata
pdata	SEGMENT
$pdata$??$?0$$V@property_list@codeplay@sycl@cl@@QEAA@XZ DD imagerel $LN4
	DD	imagerel $LN4+86
	DD	imagerel $unwind$??$?0$$V@property_list@codeplay@sycl@cl@@QEAA@XZ
pdata	ENDS
;	COMDAT pdata
pdata	SEGMENT
$pdata$?dtor$0@?0???$?0$$V@property_list@codeplay@sycl@cl@@QEAA@XZ@4HA DD imagerel ?dtor$0@?0???$?0$$V@property_list@codeplay@sycl@cl@@QEAA@XZ@4HA
	DD	imagerel ?dtor$0@?0???$?0$$V@property_list@codeplay@sycl@cl@@QEAA@XZ@4HA+36
	DD	imagerel $unwind$?dtor$0@?0???$?0$$V@property_list@codeplay@sycl@cl@@QEAA@XZ@4HA
pdata	ENDS
;	COMDAT pdata
pdata	SEGMENT
$pdata$?get_global_item@?$nd_item@$00@sycl@cl@@AEBA?AV?$item@$00@23@XZ DD imagerel $LN3
	DD	imagerel $LN3+61
	DD	imagerel $unwind$?get_global_item@?$nd_item@$00@sycl@cl@@AEBA?AV?$item@$00@23@XZ
pdata	ENDS
;	COMDAT pdata
pdata	SEGMENT
$pdata$??0?$nd_item@$00@sycl@cl@@QEAA@AEBVnd_item_base@detail@12@@Z DD imagerel $LN3
	DD	imagerel $LN3+37
	DD	imagerel $unwind$??0?$nd_item@$00@sycl@cl@@QEAA@AEBVnd_item_base@detail@12@@Z
pdata	ENDS
;	COMDAT pdata
pdata	SEGMENT
$pdata$?get_global@?$nd_item@$00@sycl@cl@@QEBA?AV?$id@$00@23@XZ DD imagerel $LN5
	DD	imagerel $LN5+145
	DD	imagerel $unwind$?get_global@?$nd_item@$00@sycl@cl@@QEBA?AV?$id@$00@23@XZ
pdata	ENDS
;	COMDAT pdata
pdata	SEGMENT
$pdata$??R<lambda_3f9c5c7b45595c947291c392d386a98c>@@QEBA@AEAVhandler@sycl@cl@@@Z DD imagerel ??R<lambda_3f9c5c7b45595c947291c392d386a98c>@@QEBA@AEAVhandler@sycl@cl@@@Z
	DD	imagerel ??R<lambda_3f9c5c7b45595c947291c392d386a98c>@@QEBA@AEAVhandler@sycl@cl@@@Z+398
	DD	imagerel $unwind$??R<lambda_3f9c5c7b45595c947291c392d386a98c>@@QEBA@AEAVhandler@sycl@cl@@@Z
pdata	ENDS
;	COMDAT pdata
pdata	SEGMENT
$pdata$?dtor$0@?0???R<lambda_3f9c5c7b45595c947291c392d386a98c>@@QEBA@AEAVhandler@sycl@cl@@@Z@4HA DD imagerel ?dtor$0@?0???R<lambda_3f9c5c7b45595c947291c392d386a98c>@@QEBA@AEAVhandler@sycl@cl@@@Z@4HA
	DD	imagerel ?dtor$0@?0???R<lambda_3f9c5c7b45595c947291c392d386a98c>@@QEBA@AEAVhandler@sycl@cl@@@Z@4HA+35
	DD	imagerel $unwind$?dtor$0@?0???R<lambda_3f9c5c7b45595c947291c392d386a98c>@@QEBA@AEAVhandler@sycl@cl@@@Z@4HA
pdata	ENDS
;	COMDAT pdata
pdata	SEGMENT
$pdata$?dtor$1@?0???R<lambda_3f9c5c7b45595c947291c392d386a98c>@@QEBA@AEAVhandler@sycl@cl@@@Z@4HA DD imagerel ?dtor$1@?0???R<lambda_3f9c5c7b45595c947291c392d386a98c>@@QEBA@AEAVhandler@sycl@cl@@@Z@4HA
	DD	imagerel ?dtor$1@?0???R<lambda_3f9c5c7b45595c947291c392d386a98c>@@QEBA@AEAVhandler@sycl@cl@@@Z@4HA+38
	DD	imagerel $unwind$?dtor$1@?0???R<lambda_3f9c5c7b45595c947291c392d386a98c>@@QEBA@AEAVhandler@sycl@cl@@@Z@4HA
pdata	ENDS
;	COMDAT pdata
pdata	SEGMENT
$pdata$?dtor$2@?0???R<lambda_3f9c5c7b45595c947291c392d386a98c>@@QEBA@AEAVhandler@sycl@cl@@@Z@4HA DD imagerel ?dtor$2@?0???R<lambda_3f9c5c7b45595c947291c392d386a98c>@@QEBA@AEAVhandler@sycl@cl@@@Z@4HA
	DD	imagerel ?dtor$2@?0???R<lambda_3f9c5c7b45595c947291c392d386a98c>@@QEBA@AEAVhandler@sycl@cl@@@Z@4HA+38
	DD	imagerel $unwind$?dtor$2@?0???R<lambda_3f9c5c7b45595c947291c392d386a98c>@@QEBA@AEAVhandler@sycl@cl@@@Z@4HA
pdata	ENDS
;	COMDAT pdata
pdata	SEGMENT
$pdata$?dtor$4@?0???R<lambda_3f9c5c7b45595c947291c392d386a98c>@@QEBA@AEAVhandler@sycl@cl@@@Z@4HA DD imagerel ?dtor$4@?0???R<lambda_3f9c5c7b45595c947291c392d386a98c>@@QEBA@AEAVhandler@sycl@cl@@@Z@4HA
	DD	imagerel ?dtor$4@?0???R<lambda_3f9c5c7b45595c947291c392d386a98c>@@QEBA@AEAVhandler@sycl@cl@@@Z@4HA+38
	DD	imagerel $unwind$?dtor$4@?0???R<lambda_3f9c5c7b45595c947291c392d386a98c>@@QEBA@AEAVhandler@sycl@cl@@@Z@4HA
pdata	ENDS
;	COMDAT pdata
pdata	SEGMENT
$pdata$??0<lambda_3f9c5c7b45595c947291c392d386a98c>@@QEAA@AEAV?$buffer@H$00V?$aligned_allocator@H@aligned_mem@detail@sycl@cl@@@sycl@cl@@@Z DD imagerel ??0<lambda_3f9c5c7b45595c947291c392d386a98c>@@QEAA@AEAV?$buffer@H$00V?$aligned_allocator@H@aligned_mem@detail@sycl@cl@@@sycl@cl@@@Z
	DD	imagerel ??0<lambda_3f9c5c7b45595c947291c392d386a98c>@@QEAA@AEAV?$buffer@H$00V?$aligned_allocator@H@aligned_mem@detail@sycl@cl@@@sycl@cl@@@Z+31
	DD	imagerel $unwind$??0<lambda_3f9c5c7b45595c947291c392d386a98c>@@QEAA@AEAV?$buffer@H$00V?$aligned_allocator@H@aligned_mem@detail@sycl@cl@@@sycl@cl@@@Z
pdata	ENDS
;	COMDAT pdata
pdata	SEGMENT
$pdata$??$get_access@$01$00@?$buffer@H$00V?$aligned_allocator@H@aligned_mem@detail@sycl@cl@@@sycl@cl@@QEAA?AV?$accessor@H$00$01$00$0A@@12@AEAVhandler@12@@Z DD imagerel $LN5
	DD	imagerel $LN5+90
	DD	imagerel $unwind$??$get_access@$01$00@?$buffer@H$00V?$aligned_allocator@H@aligned_mem@detail@sycl@cl@@@sycl@cl@@QEAA?AV?$accessor@H$00$01$00$0A@@12@AEAVhandler@12@@Z
pdata	ENDS
;	COMDAT pdata
pdata	SEGMENT
$pdata$??0?$accessor_common@H$00$01$00$0A@@detail@sycl@cl@@QEAA@AEAVstorage_mem@23@AEAVhandler@23@@Z DD imagerel $LN4
	DD	imagerel $LN4+98
	DD	imagerel $unwind$??0?$accessor_common@H$00$01$00$0A@@detail@sycl@cl@@QEAA@AEAVstorage_mem@23@AEAVhandler@23@@Z
pdata	ENDS
;	COMDAT pdata
pdata	SEGMENT
$pdata$?get_device_ptr@?$accessor_common@H$00$01$00$0A@@detail@sycl@cl@@QEBAPEAHXZ DD imagerel $LN3
	DD	imagerel $LN3+17
	DD	imagerel $unwind$?get_device_ptr@?$accessor_common@H$00$01$00$0A@@detail@sycl@cl@@QEBAPEAHXZ
pdata	ENDS
;	COMDAT pdata
pdata	SEGMENT
$pdata$?get_range@?$accessor_common@H$00$01$00$0A@@detail@sycl@cl@@QEBA?AV?$range@$00@34@XZ DD imagerel $LN5
	DD	imagerel $LN5+122
	DD	imagerel $unwind$?get_range@?$accessor_common@H$00$01$00$0A@@detail@sycl@cl@@QEBA?AV?$range@$00@34@XZ
pdata	ENDS
;	COMDAT pdata
pdata	SEGMENT
$pdata$??1?$accessor_common@H$00$01$00$0A@@detail@sycl@cl@@QEAA@XZ DD imagerel $LN3
	DD	imagerel $LN3+47
	DD	imagerel $unwind$??1?$accessor_common@H$00$01$00$0A@@detail@sycl@cl@@QEAA@XZ
pdata	ENDS
;	COMDAT pdata
pdata	SEGMENT
$pdata$??0?$accessor_common@H$00$01$00$0A@@detail@sycl@cl@@QEAA@AEBV0123@@Z DD imagerel $LN4
	DD	imagerel $LN4+62
	DD	imagerel $unwind$??0?$accessor_common@H$00$01$00$0A@@detail@sycl@cl@@QEAA@AEBV0123@@Z
pdata	ENDS
;	COMDAT pdata
pdata	SEGMENT
$pdata$??0?$accessor_common@H$00$01$00$0A@@detail@sycl@cl@@QEAA@$$QEAV0123@@Z DD imagerel $LN4
	DD	imagerel $LN4+62
	DD	imagerel $unwind$??0?$accessor_common@H$00$01$00$0A@@detail@sycl@cl@@QEAA@$$QEAV0123@@Z
pdata	ENDS
;	COMDAT pdata
pdata	SEGMENT
$pdata$??1?$accessor@H$00$01$00$0A@@sycl@cl@@QEAA@XZ DD imagerel $LN3
	DD	imagerel $LN3+46
	DD	imagerel $unwind$??1?$accessor@H$00$01$00$0A@@sycl@cl@@QEAA@XZ
pdata	ENDS
;	COMDAT pdata
pdata	SEGMENT
$pdata$??0?$accessor@H$00$01$00$0A@@sycl@cl@@QEAA@AEBV012@@Z DD imagerel $LN4
	DD	imagerel $LN4+61
	DD	imagerel $unwind$??0?$accessor@H$00$01$00$0A@@sycl@cl@@QEAA@AEBV012@@Z
pdata	ENDS
;	COMDAT pdata
pdata	SEGMENT
$pdata$??0?$accessor@H$00$01$00$0A@@sycl@cl@@QEAA@$$QEAV012@@Z DD imagerel $LN4
	DD	imagerel $LN4+61
	DD	imagerel $unwind$??0?$accessor@H$00$01$00$0A@@sycl@cl@@QEAA@$$QEAV012@@Z
pdata	ENDS
;	COMDAT pdata
pdata	SEGMENT
$pdata$??0?$nd_range@$00@sycl@cl@@QEAA@V?$range@$00@12@0V?$id@$00@12@@Z DD imagerel $LN6
	DD	imagerel $LN6+306
	DD	imagerel $unwind$??0?$nd_range@$00@sycl@cl@@QEAA@V?$range@$00@12@0V?$id@$00@12@@Z
pdata	ENDS
;	COMDAT pdata
pdata	SEGMENT
$pdata$?dtor$0@?0???0?$nd_range@$00@sycl@cl@@QEAA@V?$range@$00@12@0V?$id@$00@12@@Z@4HA DD imagerel ?dtor$0@?0???0?$nd_range@$00@sycl@cl@@QEAA@V?$range@$00@12@0V?$id@$00@12@@Z@4HA
	DD	imagerel ?dtor$0@?0???0?$nd_range@$00@sycl@cl@@QEAA@V?$range@$00@12@0V?$id@$00@12@@Z@4HA+38
	DD	imagerel $unwind$?dtor$0@?0???0?$nd_range@$00@sycl@cl@@QEAA@V?$range@$00@12@0V?$id@$00@12@@Z@4HA
pdata	ENDS
;	COMDAT pdata
pdata	SEGMENT
$pdata$?dtor$1@?0???0?$nd_range@$00@sycl@cl@@QEAA@V?$range@$00@12@0V?$id@$00@12@@Z@4HA DD imagerel ?dtor$1@?0???0?$nd_range@$00@sycl@cl@@QEAA@V?$range@$00@12@0V?$id@$00@12@@Z@4HA
	DD	imagerel ?dtor$1@?0???0?$nd_range@$00@sycl@cl@@QEAA@V?$range@$00@12@0V?$id@$00@12@@Z@4HA+38
	DD	imagerel $unwind$?dtor$1@?0???0?$nd_range@$00@sycl@cl@@QEAA@V?$range@$00@12@0V?$id@$00@12@@Z@4HA
pdata	ENDS
;	COMDAT pdata
pdata	SEGMENT
$pdata$?dtor$2@?0???0?$nd_range@$00@sycl@cl@@QEAA@V?$range@$00@12@0V?$id@$00@12@@Z@4HA DD imagerel ?dtor$2@?0???0?$nd_range@$00@sycl@cl@@QEAA@V?$range@$00@12@0V?$id@$00@12@@Z@4HA
	DD	imagerel ?dtor$2@?0???0?$nd_range@$00@sycl@cl@@QEAA@V?$range@$00@12@0V?$id@$00@12@@Z@4HA+38
	DD	imagerel $unwind$?dtor$2@?0???0?$nd_range@$00@sycl@cl@@QEAA@V?$range@$00@12@0V?$id@$00@12@@Z@4HA
pdata	ENDS
;	COMDAT pdata
pdata	SEGMENT
$pdata$??R<lambda_a7f33fec5b6c4de3460ce58d02d2d54d>@@QEBAXV?$nd_item@$00@sycl@cl@@@Z DD imagerel ??R<lambda_a7f33fec5b6c4de3460ce58d02d2d54d>@@QEBAXV?$nd_item@$00@sycl@cl@@@Z
	DD	imagerel ??R<lambda_a7f33fec5b6c4de3460ce58d02d2d54d>@@QEBAXV?$nd_item@$00@sycl@cl@@@Z+222
	DD	imagerel $unwind$??R<lambda_a7f33fec5b6c4de3460ce58d02d2d54d>@@QEBAXV?$nd_item@$00@sycl@cl@@@Z
pdata	ENDS
;	COMDAT pdata
pdata	SEGMENT
$pdata$?dtor$0@?0???R<lambda_a7f33fec5b6c4de3460ce58d02d2d54d>@@QEBAXV?$nd_item@$00@sycl@cl@@@Z@4HA DD imagerel ?dtor$0@?0???R<lambda_a7f33fec5b6c4de3460ce58d02d2d54d>@@QEBAXV?$nd_item@$00@sycl@cl@@@Z@4HA
	DD	imagerel ?dtor$0@?0???R<lambda_a7f33fec5b6c4de3460ce58d02d2d54d>@@QEBAXV?$nd_item@$00@sycl@cl@@@Z@4HA+35
	DD	imagerel $unwind$?dtor$0@?0???R<lambda_a7f33fec5b6c4de3460ce58d02d2d54d>@@QEBAXV?$nd_item@$00@sycl@cl@@@Z@4HA
pdata	ENDS
;	COMDAT pdata
pdata	SEGMENT
$pdata$??0<lambda_a7f33fec5b6c4de3460ce58d02d2d54d>@@QEAA@AEBV?$accessor@H$00$01$00$0A@@sycl@cl@@@Z DD imagerel ??0<lambda_a7f33fec5b6c4de3460ce58d02d2d54d>@@QEAA@AEBV?$accessor@H$00$01$00$0A@@sycl@cl@@@Z
	DD	imagerel ??0<lambda_a7f33fec5b6c4de3460ce58d02d2d54d>@@QEAA@AEBV?$accessor@H$00$01$00$0A@@sycl@cl@@@Z+64
	DD	imagerel $unwind$??0<lambda_a7f33fec5b6c4de3460ce58d02d2d54d>@@QEAA@AEBV?$accessor@H$00$01$00$0A@@sycl@cl@@@Z
pdata	ENDS
;	COMDAT pdata
pdata	SEGMENT
$pdata$??0<lambda_a7f33fec5b6c4de3460ce58d02d2d54d>@@QEAA@AEBV0@@Z DD imagerel ??0<lambda_a7f33fec5b6c4de3460ce58d02d2d54d>@@QEAA@AEBV0@@Z
	DD	imagerel ??0<lambda_a7f33fec5b6c4de3460ce58d02d2d54d>@@QEAA@AEBV0@@Z+64
	DD	imagerel $unwind$??0<lambda_a7f33fec5b6c4de3460ce58d02d2d54d>@@QEAA@AEBV0@@Z
pdata	ENDS
;	COMDAT pdata
pdata	SEGMENT
$pdata$??0<lambda_a7f33fec5b6c4de3460ce58d02d2d54d>@@QEAA@$$QEAV0@@Z DD imagerel ??0<lambda_a7f33fec5b6c4de3460ce58d02d2d54d>@@QEAA@$$QEAV0@@Z
	DD	imagerel ??0<lambda_a7f33fec5b6c4de3460ce58d02d2d54d>@@QEAA@$$QEAV0@@Z+64
	DD	imagerel $unwind$??0<lambda_a7f33fec5b6c4de3460ce58d02d2d54d>@@QEAA@$$QEAV0@@Z
pdata	ENDS
;	COMDAT pdata
pdata	SEGMENT
$pdata$??1<lambda_a7f33fec5b6c4de3460ce58d02d2d54d>@@QEAA@XZ DD imagerel ??1<lambda_a7f33fec5b6c4de3460ce58d02d2d54d>@@QEAA@XZ
	DD	imagerel ??1<lambda_a7f33fec5b6c4de3460ce58d02d2d54d>@@QEAA@XZ+49
	DD	imagerel $unwind$??1<lambda_a7f33fec5b6c4de3460ce58d02d2d54d>@@QEAA@XZ
pdata	ENDS
;	COMDAT pdata
pdata	SEGMENT
$pdata$??$?AHX@?$accessor_common@H$00$01$00$0A@@detail@sycl@cl@@QEBAAEAHV?$id@$00@23@@Z DD imagerel $LN5
	DD	imagerel $LN5+387
	DD	imagerel $unwind$??$?AHX@?$accessor_common@H$00$01$00$0A@@detail@sycl@cl@@QEBAAEAHV?$id@$00@23@@Z
pdata	ENDS
;	COMDAT pdata
pdata	SEGMENT
$pdata$?dtor$0@?0???$?AHX@?$accessor_common@H$00$01$00$0A@@detail@sycl@cl@@QEBAAEAHV?$id@$00@23@@Z@4HA DD imagerel ?dtor$0@?0???$?AHX@?$accessor_common@H$00$01$00$0A@@detail@sycl@cl@@QEBAAEAHV?$id@$00@23@@Z@4HA
	DD	imagerel ?dtor$0@?0???$?AHX@?$accessor_common@H$00$01$00$0A@@detail@sycl@cl@@QEBAAEAHV?$id@$00@23@@Z@4HA+38
	DD	imagerel $unwind$?dtor$0@?0???$?AHX@?$accessor_common@H$00$01$00$0A@@detail@sycl@cl@@QEBAAEAHV?$id@$00@23@@Z@4HA
pdata	ENDS
;	COMDAT pdata
pdata	SEGMENT
$pdata$?dtor$1@?0???$?AHX@?$accessor_common@H$00$01$00$0A@@detail@sycl@cl@@QEBAAEAHV?$id@$00@23@@Z@4HA DD imagerel ?dtor$1@?0???$?AHX@?$accessor_common@H$00$01$00$0A@@detail@sycl@cl@@QEBAAEAHV?$id@$00@23@@Z@4HA
	DD	imagerel ?dtor$1@?0???$?AHX@?$accessor_common@H$00$01$00$0A@@detail@sycl@cl@@QEBAAEAHV?$id@$00@23@@Z@4HA+35
	DD	imagerel $unwind$?dtor$1@?0???$?AHX@?$accessor_common@H$00$01$00$0A@@detail@sycl@cl@@QEBAAEAHV?$id@$00@23@@Z@4HA
pdata	ENDS
;	COMDAT pdata
pdata	SEGMENT
$pdata$??$parallel_for@Vassign_elements@@V<lambda_a7f33fec5b6c4de3460ce58d02d2d54d>@@$00@handler@sycl@cl@@QEAAXAEBV?$nd_range@$00@12@AEBV<lambda_a7f33fec5b6c4de3460ce58d02d2d54d>@@@Z DD imagerel $LN3
	DD	imagerel $LN3+66
	DD	imagerel $unwind$??$parallel_for@Vassign_elements@@V<lambda_a7f33fec5b6c4de3460ce58d02d2d54d>@@$00@handler@sycl@cl@@QEAAXAEBV?$nd_range@$00@12@AEBV<lambda_a7f33fec5b6c4de3460ce58d02d2d54d>@@@Z
pdata	ENDS
;	COMDAT pdata
pdata	SEGMENT
$pdata$??$submit@V<lambda_3f9c5c7b45595c947291c392d386a98c>@@@queue@sycl@cl@@QEAA?AVhandler_event@12@V<lambda_3f9c5c7b45595c947291c392d386a98c>@@@Z DD imagerel $LN5
	DD	imagerel $LN5+121
	DD	imagerel $unwind$??$submit@V<lambda_3f9c5c7b45595c947291c392d386a98c>@@@queue@sycl@cl@@QEAA?AVhandler_event@12@V<lambda_3f9c5c7b45595c947291c392d386a98c>@@@Z
pdata	ENDS
;	COMDAT pdata
pdata	SEGMENT
$pdata$??$endl@DU?$char_traits@D@std@@@std@@YAAEAV?$basic_ostream@DU?$char_traits@D@std@@@0@AEAV10@@Z DD imagerel $LN3
	DD	imagerel $LN3+100
	DD	imagerel $unwind$??$endl@DU?$char_traits@D@std@@@std@@YAAEAV?$basic_ostream@DU?$char_traits@D@std@@@0@AEAV10@@Z
pdata	ENDS
;	COMDAT pdata
pdata	SEGMENT
$pdata$??0?$item@$00@sycl@cl@@QEAA@AEBVitem_base@detail@12@@Z DD imagerel $LN3
	DD	imagerel $LN3+37
	DD	imagerel $unwind$??0?$item@$00@sycl@cl@@QEAA@AEBVitem_base@detail@12@@Z
pdata	ENDS
;	COMDAT pdata
pdata	SEGMENT
$pdata$?get@?$item@$00@sycl@cl@@QEBA?AV?$id@$00@23@XZ DD imagerel $LN5
	DD	imagerel $LN5+80
	DD	imagerel $unwind$?get@?$item@$00@sycl@cl@@QEBA?AV?$id@$00@23@XZ
pdata	ENDS
;	COMDAT pdata
pdata	SEGMENT
$pdata$??0?$_Ptr_base@X@std@@QEAA@XZ DD imagerel $LN3
	DD	imagerel $LN3+38
	DD	imagerel $unwind$??0?$_Ptr_base@X@std@@QEAA@XZ
pdata	ENDS
;	COMDAT pdata
pdata	SEGMENT
$pdata$?_Decref@?$_Ptr_base@X@std@@QEAAXXZ DD imagerel $LN4
	DD	imagerel $LN4+62
	DD	imagerel $unwind$?_Decref@?$_Ptr_base@X@std@@QEAAXXZ
pdata	ENDS
;	COMDAT pdata
pdata	SEGMENT
$pdata$?_Reset0@?$_Ptr_base@X@std@@QEAAXPEAXPEAV_Ref_count_base@2@@Z DD imagerel $LN4
	DD	imagerel $LN4+99
	DD	imagerel $unwind$?_Reset0@?$_Ptr_base@X@std@@QEAAXPEAXPEAV_Ref_count_base@2@@Z
pdata	ENDS
;	COMDAT pdata
pdata	SEGMENT
$pdata$??1?$shared_ptr@X@std@@QEAA@XZ DD imagerel $LN3
	DD	imagerel $LN3+56
	DD	imagerel $unwind$??1?$shared_ptr@X@std@@QEAA@XZ
pdata	ENDS
;	COMDAT pdata
pdata	SEGMENT
$pdata$??$?0XUNullDeleter@detail@sycl@cl@@@?$shared_ptr@X@std@@QEAA@PEAXUNullDeleter@detail@sycl@cl@@@Z DD imagerel $LN3
	DD	imagerel $LN3+82
	DD	imagerel $unwind$??$?0XUNullDeleter@detail@sycl@cl@@@?$shared_ptr@X@std@@QEAA@PEAXUNullDeleter@detail@sycl@cl@@@Z
pdata	ENDS
;	COMDAT pdata
pdata	SEGMENT
$pdata$??$move@V?$shared_ptr@X@std@@@std@@YA$$QEAV?$shared_ptr@X@0@$$QEAV10@@Z DD imagerel $LN3
	DD	imagerel $LN3+13
	DD	imagerel $unwind$??$move@V?$shared_ptr@X@std@@@std@@YA$$QEAV?$shared_ptr@X@0@$$QEAV10@@Z
pdata	ENDS
;	COMDAT pdata
pdata	SEGMENT
$pdata$?get@?$make_base_allocator@HV?$aligned_allocator@H@aligned_mem@detail@sycl@cl@@@detail@sycl@cl@@SA?AV?$unique_ptr@Vbase_allocator@detail@sycl@cl@@U?$default_delete@Vbase_allocator@detail@sycl@cl@@@std@@@std@@XZ DD imagerel $LN9
	DD	imagerel $LN9+187
	DD	imagerel $unwind$?get@?$make_base_allocator@HV?$aligned_allocator@H@aligned_mem@detail@sycl@cl@@@detail@sycl@cl@@SA?AV?$unique_ptr@Vbase_allocator@detail@sycl@cl@@U?$default_delete@Vbase_allocator@detail@sycl@cl@@@std@@@std@@XZ
pdata	ENDS
;	COMDAT pdata
pdata	SEGMENT
$pdata$?dtor$0@?0??get@?$make_base_allocator@HV?$aligned_allocator@H@aligned_mem@detail@sycl@cl@@@detail@sycl@cl@@SA?AV?$unique_ptr@Vbase_allocator@detail@sycl@cl@@U?$default_delete@Vbase_allocator@detail@sycl@cl@@@std@@@std@@XZ@4HA DD imagerel ?dtor$0@?0??get@?$make_base_allocator@HV?$aligned_allocator@H@aligned_mem@detail@sycl@cl@@@detail@sycl@cl@@SA?AV?$unique_ptr@Vbase_allocator@detail@sycl@cl@@U?$default_delete@Vbase_allocator@detail@sycl@cl@@@std@@@std@@XZ@4HA
	DD	imagerel ?dtor$0@?0??get@?$make_base_allocator@HV?$aligned_allocator@H@aligned_mem@detail@sycl@cl@@@detail@sycl@cl@@SA?AV?$unique_ptr@Vbase_allocator@detail@sycl@cl@@U?$default_delete@Vbase_allocator@detail@sycl@cl@@@std@@@std@@XZ@4HA+40
	DD	imagerel $unwind$?dtor$0@?0??get@?$make_base_allocator@HV?$aligned_allocator@H@aligned_mem@detail@sycl@cl@@@detail@sycl@cl@@SA?AV?$unique_ptr@Vbase_allocator@detail@sycl@cl@@U?$default_delete@Vbase_allocator@detail@sycl@cl@@@std@@@std@@XZ@4HA
pdata	ENDS
;	COMDAT pdata
pdata	SEGMENT
$pdata$??$_Debug_pointer@$$CBD@std@@YAXPEBDPEB_WI@Z DD imagerel $LN4
	DD	imagerel $LN4+77
	DD	imagerel $unwind$??$_Debug_pointer@$$CBD@std@@YAXPEBDPEB_WI@Z
pdata	ENDS
;	COMDAT pdata
pdata	SEGMENT
$pdata$??$move@AEAU?$_Wrap_alloc@V?$allocator@D@std@@@std@@@std@@YA$$QEAU?$_Wrap_alloc@V?$allocator@D@std@@@0@AEAU10@@Z DD imagerel $LN3
	DD	imagerel $LN3+13
	DD	imagerel $unwind$??$move@AEAU?$_Wrap_alloc@V?$allocator@D@std@@@std@@@std@@YA$$QEAU?$_Wrap_alloc@V?$allocator@D@std@@@0@AEAU10@@Z
pdata	ENDS
;	COMDAT pdata
pdata	SEGMENT
$pdata$??$?0U?$_Wrap_alloc@V?$allocator@D@std@@@std@@X@?$_String_alloc@U?$_String_base_types@DV?$allocator@D@std@@@std@@@std@@QEAA@$$QEAU?$_Wrap_alloc@V?$allocator@D@std@@@1@@Z DD imagerel $LN4
	DD	imagerel $LN4+95
	DD	imagerel $unwind$??$?0U?$_Wrap_alloc@V?$allocator@D@std@@@std@@X@?$_String_alloc@U?$_String_base_types@DV?$allocator@D@std@@@std@@@std@@QEAA@$$QEAU?$_Wrap_alloc@V?$allocator@D@std@@@1@@Z
pdata	ENDS
;	COMDAT pdata
pdata	SEGMENT
$pdata$?dtor$0@?0???$?0U?$_Wrap_alloc@V?$allocator@D@std@@@std@@X@?$_String_alloc@U?$_String_base_types@DV?$allocator@D@std@@@std@@@std@@QEAA@$$QEAU?$_Wrap_alloc@V?$allocator@D@std@@@1@@Z@4HA DD imagerel ?dtor$0@?0???$?0U?$_Wrap_alloc@V?$allocator@D@std@@@std@@X@?$_String_alloc@U?$_String_base_types@DV?$allocator@D@std@@@std@@@std@@QEAA@$$QEAU?$_Wrap_alloc@V?$allocator@D@std@@@1@@Z@4HA
	DD	imagerel ?dtor$0@?0???$?0U?$_Wrap_alloc@V?$allocator@D@std@@@std@@X@?$_String_alloc@U?$_String_base_types@DV?$allocator@D@std@@@std@@@std@@QEAA@$$QEAU?$_Wrap_alloc@V?$allocator@D@std@@@1@@Z@4HA+35
	DD	imagerel $unwind$?dtor$0@?0???$?0U?$_Wrap_alloc@V?$allocator@D@std@@@std@@X@?$_String_alloc@U?$_String_base_types@DV?$allocator@D@std@@@std@@@std@@QEAA@$$QEAU?$_Wrap_alloc@V?$allocator@D@std@@@1@@Z@4HA
pdata	ENDS
;	COMDAT pdata
pdata	SEGMENT
$pdata$??0_Sentry_base@?$basic_ostream@DU?$char_traits@D@std@@@std@@QEAA@AEAV12@@Z DD imagerel $LN4
	DD	imagerel $LN4+175
	DD	imagerel $unwind$??0_Sentry_base@?$basic_ostream@DU?$char_traits@D@std@@@std@@QEAA@AEAV12@@Z
pdata	ENDS
;	COMDAT pdata
pdata	SEGMENT
$pdata$??1_Sentry_base@?$basic_ostream@DU?$char_traits@D@std@@@std@@QEAA@XZ DD imagerel $LN4
	DD	imagerel $LN4+164
	DD	imagerel $unwind$??1_Sentry_base@?$basic_ostream@DU?$char_traits@D@std@@@std@@QEAA@XZ
pdata	ENDS
;	COMDAT pdata
pdata	SEGMENT
$pdata$??0sentry@?$basic_ostream@DU?$char_traits@D@std@@@std@@QEAA@AEAV12@@Z DD imagerel $LN5
	DD	imagerel $LN5+267
	DD	imagerel $unwind$??0sentry@?$basic_ostream@DU?$char_traits@D@std@@@std@@QEAA@AEAV12@@Z
pdata	ENDS
;	COMDAT pdata
pdata	SEGMENT
$pdata$?dtor$0@?0???0sentry@?$basic_ostream@DU?$char_traits@D@std@@@std@@QEAA@AEAV12@@Z@4HA DD imagerel ?dtor$0@?0???0sentry@?$basic_ostream@DU?$char_traits@D@std@@@std@@QEAA@AEAV12@@Z@4HA
	DD	imagerel ?dtor$0@?0???0sentry@?$basic_ostream@DU?$char_traits@D@std@@@std@@QEAA@AEAV12@@Z@4HA+35
	DD	imagerel $unwind$?dtor$0@?0???0sentry@?$basic_ostream@DU?$char_traits@D@std@@@std@@QEAA@AEAV12@@Z@4HA
pdata	ENDS
;	COMDAT pdata
pdata	SEGMENT
$pdata$??1sentry@?$basic_ostream@DU?$char_traits@D@std@@@std@@QEAA@XZ DD imagerel $LN4
	DD	imagerel $LN4+85
	DD	imagerel $unwind$??1sentry@?$basic_ostream@DU?$char_traits@D@std@@@std@@QEAA@XZ
pdata	ENDS
;	COMDAT pdata
pdata	SEGMENT
$pdata$??Bsentry@?$basic_ostream@DU?$char_traits@D@std@@@std@@QEBA_NXZ DD imagerel $LN3
	DD	imagerel $LN3+17
	DD	imagerel $unwind$??Bsentry@?$basic_ostream@DU?$char_traits@D@std@@@std@@QEBA_NXZ
pdata	ENDS
;	COMDAT pdata
pdata	SEGMENT
$pdata$??0?$typed_allocator@HV?$aligned_allocator@H@aligned_mem@detail@sycl@cl@@@detail@sycl@cl@@QEAA@XZ DD imagerel $LN5
	DD	imagerel $LN5+121
	DD	imagerel $unwind$??0?$typed_allocator@HV?$aligned_allocator@H@aligned_mem@detail@sycl@cl@@@detail@sycl@cl@@QEAA@XZ
pdata	ENDS
;	COMDAT pdata
pdata	SEGMENT
$pdata$?dtor$0@?0???0?$typed_allocator@HV?$aligned_allocator@H@aligned_mem@detail@sycl@cl@@@detail@sycl@cl@@QEAA@XZ@4HA DD imagerel ?dtor$0@?0???0?$typed_allocator@HV?$aligned_allocator@H@aligned_mem@detail@sycl@cl@@@detail@sycl@cl@@QEAA@XZ@4HA
	DD	imagerel ?dtor$0@?0???0?$typed_allocator@HV?$aligned_allocator@H@aligned_mem@detail@sycl@cl@@@detail@sycl@cl@@QEAA@XZ@4HA+35
	DD	imagerel $unwind$?dtor$0@?0???0?$typed_allocator@HV?$aligned_allocator@H@aligned_mem@detail@sycl@cl@@@detail@sycl@cl@@QEAA@XZ@4HA
pdata	ENDS
;	COMDAT pdata
pdata	SEGMENT
$pdata$??1?$typed_allocator@HV?$aligned_allocator@H@aligned_mem@detail@sycl@cl@@@detail@sycl@cl@@UEAA@XZ DD imagerel $LN3
	DD	imagerel $LN3+63
	DD	imagerel $unwind$??1?$typed_allocator@HV?$aligned_allocator@H@aligned_mem@detail@sycl@cl@@@detail@sycl@cl@@UEAA@XZ
pdata	ENDS
;	COMDAT pdata
pdata	SEGMENT
$pdata$?allocate@?$typed_allocator@HV?$aligned_allocator@H@aligned_mem@detail@sycl@cl@@@detail@sycl@cl@@UEAAPEAX_K@Z DD imagerel $LN3
	DD	imagerel $LN3+80
	DD	imagerel $unwind$?allocate@?$typed_allocator@HV?$aligned_allocator@H@aligned_mem@detail@sycl@cl@@@detail@sycl@cl@@UEAAPEAX_K@Z
pdata	ENDS
;	COMDAT pdata
pdata	SEGMENT
$pdata$?deallocate@?$typed_allocator@HV?$aligned_allocator@H@aligned_mem@detail@sycl@cl@@@detail@sycl@cl@@UEAAXPEAX_K@Z DD imagerel $LN3
	DD	imagerel $LN3+100
	DD	imagerel $unwind$?deallocate@?$typed_allocator@HV?$aligned_allocator@H@aligned_mem@detail@sycl@cl@@@detail@sycl@cl@@UEAAXPEAX_K@Z
pdata	ENDS
;	COMDAT pdata
pdata	SEGMENT
$pdata$??0?$allocator@H@std@@QEAA@XZ DD imagerel $LN3
	DD	imagerel $LN3+13
	DD	imagerel $unwind$??0?$allocator@H@std@@QEAA@XZ
pdata	ENDS
;	COMDAT pdata
pdata	SEGMENT
$pdata$??0?$allocator@H@std@@QEAA@AEBV01@@Z DD imagerel $LN3
	DD	imagerel $LN3+18
	DD	imagerel $unwind$??0?$allocator@H@std@@QEAA@AEBV01@@Z
pdata	ENDS
;	COMDAT pdata
pdata	SEGMENT
$pdata$??0?$aligned_allocator@H@aligned_mem@detail@sycl@cl@@QEAA@_K0@Z DD imagerel $LN4
	DD	imagerel $LN4+106
	DD	imagerel $unwind$??0?$aligned_allocator@H@aligned_mem@detail@sycl@cl@@QEAA@_K0@Z
pdata	ENDS
;	COMDAT pdata
pdata	SEGMENT
$pdata$?allocate@?$aligned_allocator@H@aligned_mem@detail@sycl@cl@@UEAAPEAX_K@Z DD imagerel $LN3
	DD	imagerel $LN3+77
	DD	imagerel $unwind$?allocate@?$aligned_allocator@H@aligned_mem@detail@sycl@cl@@UEAAPEAX_K@Z
pdata	ENDS
;	COMDAT pdata
pdata	SEGMENT
$pdata$?deallocate@?$aligned_allocator@H@aligned_mem@detail@sycl@cl@@UEAAXPEAX_K@Z DD imagerel $LN3
	DD	imagerel $LN3+78
	DD	imagerel $unwind$?deallocate@?$aligned_allocator@H@aligned_mem@detail@sycl@cl@@UEAAXPEAX_K@Z
pdata	ENDS
;	COMDAT pdata
pdata	SEGMENT
$pdata$??1?$aligned_allocator@H@aligned_mem@detail@sycl@cl@@UEAA@XZ DD imagerel $LN3
	DD	imagerel $LN3+46
	DD	imagerel $unwind$??1?$aligned_allocator@H@aligned_mem@detail@sycl@cl@@UEAA@XZ
pdata	ENDS
;	COMDAT pdata
pdata	SEGMENT
$pdata$??_G?$aligned_allocator@H@aligned_mem@detail@sycl@cl@@UEAAPEAXI@Z DD imagerel $LN4
	DD	imagerel $LN4+81
	DD	imagerel $unwind$??_G?$aligned_allocator@H@aligned_mem@detail@sycl@cl@@UEAAPEAXI@Z
pdata	ENDS
;	COMDAT pdata
pdata	SEGMENT
$pdata$??_G?$typed_allocator@HV?$aligned_allocator@H@aligned_mem@detail@sycl@cl@@@detail@sycl@cl@@UEAAPEAXI@Z DD imagerel $LN4
	DD	imagerel $LN4+81
	DD	imagerel $unwind$??_G?$typed_allocator@HV?$aligned_allocator@H@aligned_mem@detail@sycl@cl@@@detail@sycl@cl@@UEAAPEAXI@Z
pdata	ENDS
;	COMDAT pdata
pdata	SEGMENT
$pdata$??R?$default_delete@V?$typed_allocator@HV?$aligned_allocator@H@aligned_mem@detail@sycl@cl@@@detail@sycl@cl@@@std@@QEBAXPEAV?$typed_allocator@HV?$aligned_allocator@H@aligned_mem@detail@sycl@cl@@@detail@sycl@cl@@@Z DD imagerel $LN5
	DD	imagerel $LN5+105
	DD	imagerel $unwind$??R?$default_delete@V?$typed_allocator@HV?$aligned_allocator@H@aligned_mem@detail@sycl@cl@@@detail@sycl@cl@@@std@@QEBAXPEAV?$typed_allocator@HV?$aligned_allocator@H@aligned_mem@detail@sycl@cl@@@detail@sycl@cl@@@Z
pdata	ENDS
;	COMDAT pdata
pdata	SEGMENT
$pdata$?get_deleter@?$_Unique_ptr_base@V?$typed_allocator@HV?$aligned_allocator@H@aligned_mem@detail@sycl@cl@@@detail@sycl@cl@@U?$default_delete@V?$typed_allocator@HV?$aligned_allocator@H@aligned_mem@detail@sycl@cl@@@detail@sycl@cl@@@std@@@std@@QEAAAEAU?$default_delete@V?$typed_allocator@HV?$aligned_allocator@H@aligned_mem@detail@sycl@cl@@@detail@sycl@cl@@@2@XZ DD imagerel $LN3
	DD	imagerel $LN3+49
	DD	imagerel $unwind$?get_deleter@?$_Unique_ptr_base@V?$typed_allocator@HV?$aligned_allocator@H@aligned_mem@detail@sycl@cl@@@detail@sycl@cl@@U?$default_delete@V?$typed_allocator@HV?$aligned_allocator@H@aligned_mem@detail@sycl@cl@@@detail@sycl@cl@@@std@@@std@@QEAAAEAU?$default_delete@V?$typed_allocator@HV?$aligned_allocator@H@aligned_mem@detail@sycl@cl@@@detail@sycl@cl@@@2@XZ
pdata	ENDS
;	COMDAT pdata
pdata	SEGMENT
$pdata$?_Myptr@?$_Unique_ptr_base@V?$typed_allocator@HV?$aligned_allocator@H@aligned_mem@detail@sycl@cl@@@detail@sycl@cl@@U?$default_delete@V?$typed_allocator@HV?$aligned_allocator@H@aligned_mem@detail@sycl@cl@@@detail@sycl@cl@@@std@@@std@@QEAAAEAPEAV?$typed_allocator@HV?$aligned_allocator@H@aligned_mem@detail@sycl@cl@@@detail@sycl@cl@@XZ DD imagerel $LN3
	DD	imagerel $LN3+49
	DD	imagerel $unwind$?_Myptr@?$_Unique_ptr_base@V?$typed_allocator@HV?$aligned_allocator@H@aligned_mem@detail@sycl@cl@@@detail@sycl@cl@@U?$default_delete@V?$typed_allocator@HV?$aligned_allocator@H@aligned_mem@detail@sycl@cl@@@detail@sycl@cl@@@std@@@std@@QEAAAEAPEAV?$typed_allocator@HV?$aligned_allocator@H@aligned_mem@detail@sycl@cl@@@detail@sycl@cl@@XZ
pdata	ENDS
;	COMDAT pdata
pdata	SEGMENT
$pdata$?_Myptr@?$_Unique_ptr_base@V?$typed_allocator@HV?$aligned_allocator@H@aligned_mem@detail@sycl@cl@@@detail@sycl@cl@@U?$default_delete@V?$typed_allocator@HV?$aligned_allocator@H@aligned_mem@detail@sycl@cl@@@detail@sycl@cl@@@std@@@std@@QEBAAEBQEAV?$typed_allocator@HV?$aligned_allocator@H@aligned_mem@detail@sycl@cl@@@detail@sycl@cl@@XZ DD imagerel $LN3
	DD	imagerel $LN3+49
	DD	imagerel $unwind$?_Myptr@?$_Unique_ptr_base@V?$typed_allocator@HV?$aligned_allocator@H@aligned_mem@detail@sycl@cl@@@detail@sycl@cl@@U?$default_delete@V?$typed_allocator@HV?$aligned_allocator@H@aligned_mem@detail@sycl@cl@@@detail@sycl@cl@@@std@@@std@@QEBAAEBQEAV?$typed_allocator@HV?$aligned_allocator@H@aligned_mem@detail@sycl@cl@@@detail@sycl@cl@@XZ
pdata	ENDS
;	COMDAT pdata
pdata	SEGMENT
$pdata$?_Get_first@?$_Compressed_pair@U?$default_delete@V?$typed_allocator@HV?$aligned_allocator@H@aligned_mem@detail@sycl@cl@@@detail@sycl@cl@@@std@@PEAV?$typed_allocator@HV?$aligned_allocator@H@aligned_mem@detail@sycl@cl@@@detail@sycl@cl@@$00@std@@QEAAAEAU?$default_delete@V?$typed_allocator@HV?$aligned_allocator@H@aligned_mem@detail@sycl@cl@@@detail@sycl@cl@@@2@XZ DD imagerel $LN3
	DD	imagerel $LN3+13
	DD	imagerel $unwind$?_Get_first@?$_Compressed_pair@U?$default_delete@V?$typed_allocator@HV?$aligned_allocator@H@aligned_mem@detail@sycl@cl@@@detail@sycl@cl@@@std@@PEAV?$typed_allocator@HV?$aligned_allocator@H@aligned_mem@detail@sycl@cl@@@detail@sycl@cl@@$00@std@@QEAAAEAU?$default_delete@V?$typed_allocator@HV?$aligned_allocator@H@aligned_mem@detail@sycl@cl@@@detail@sycl@cl@@@2@XZ
pdata	ENDS
;	COMDAT pdata
pdata	SEGMENT
$pdata$?_Get_second@?$_Compressed_pair@U?$default_delete@V?$typed_allocator@HV?$aligned_allocator@H@aligned_mem@detail@sycl@cl@@@detail@sycl@cl@@@std@@PEAV?$typed_allocator@HV?$aligned_allocator@H@aligned_mem@detail@sycl@cl@@@detail@sycl@cl@@$00@std@@QEAAAEAPEAV?$typed_allocator@HV?$aligned_allocator@H@aligned_mem@detail@sycl@cl@@@detail@sycl@cl@@XZ DD imagerel $LN3
	DD	imagerel $LN3+13
	DD	imagerel $unwind$?_Get_second@?$_Compressed_pair@U?$default_delete@V?$typed_allocator@HV?$aligned_allocator@H@aligned_mem@detail@sycl@cl@@@detail@sycl@cl@@@std@@PEAV?$typed_allocator@HV?$aligned_allocator@H@aligned_mem@detail@sycl@cl@@@detail@sycl@cl@@$00@std@@QEAAAEAPEAV?$typed_allocator@HV?$aligned_allocator@H@aligned_mem@detail@sycl@cl@@@detail@sycl@cl@@XZ
pdata	ENDS
;	COMDAT pdata
pdata	SEGMENT
$pdata$?_Get_second@?$_Compressed_pair@U?$default_delete@V?$typed_allocator@HV?$aligned_allocator@H@aligned_mem@detail@sycl@cl@@@detail@sycl@cl@@@std@@PEAV?$typed_allocator@HV?$aligned_allocator@H@aligned_mem@detail@sycl@cl@@@detail@sycl@cl@@$00@std@@QEBAAEBQEAV?$typed_allocator@HV?$aligned_allocator@H@aligned_mem@detail@sycl@cl@@@detail@sycl@cl@@XZ DD imagerel $LN3
	DD	imagerel $LN3+13
	DD	imagerel $unwind$?_Get_second@?$_Compressed_pair@U?$default_delete@V?$typed_allocator@HV?$aligned_allocator@H@aligned_mem@detail@sycl@cl@@@detail@sycl@cl@@@std@@PEAV?$typed_allocator@HV?$aligned_allocator@H@aligned_mem@detail@sycl@cl@@@detail@sycl@cl@@$00@std@@QEBAAEBQEAV?$typed_allocator@HV?$aligned_allocator@H@aligned_mem@detail@sycl@cl@@@detail@sycl@cl@@XZ
pdata	ENDS
;	COMDAT pdata
pdata	SEGMENT
$pdata$??0?$unique_ptr@V?$typed_allocator@HV?$aligned_allocator@H@aligned_mem@detail@sycl@cl@@@detail@sycl@cl@@U?$default_delete@V?$typed_allocator@HV?$aligned_allocator@H@aligned_mem@detail@sycl@cl@@@detail@sycl@cl@@@std@@@std@@QEAA@PEAV?$typed_allocator@HV?$aligned_allocator@H@aligned_mem@detail@sycl@cl@@@detail@sycl@cl@@@Z DD imagerel $LN3
	DD	imagerel $LN3+71
	DD	imagerel $unwind$??0?$unique_ptr@V?$typed_allocator@HV?$aligned_allocator@H@aligned_mem@detail@sycl@cl@@@detail@sycl@cl@@U?$default_delete@V?$typed_allocator@HV?$aligned_allocator@H@aligned_mem@detail@sycl@cl@@@detail@sycl@cl@@@std@@@std@@QEAA@PEAV?$typed_allocator@HV?$aligned_allocator@H@aligned_mem@detail@sycl@cl@@@detail@sycl@cl@@@Z
pdata	ENDS
;	COMDAT pdata
pdata	SEGMENT
$pdata$??1?$unique_ptr@V?$typed_allocator@HV?$aligned_allocator@H@aligned_mem@detail@sycl@cl@@@detail@sycl@cl@@U?$default_delete@V?$typed_allocator@HV?$aligned_allocator@H@aligned_mem@detail@sycl@cl@@@detail@sycl@cl@@@std@@@std@@QEAA@XZ DD imagerel $LN4
	DD	imagerel $LN4+92
	DD	imagerel $unwind$??1?$unique_ptr@V?$typed_allocator@HV?$aligned_allocator@H@aligned_mem@detail@sycl@cl@@@detail@sycl@cl@@U?$default_delete@V?$typed_allocator@HV?$aligned_allocator@H@aligned_mem@detail@sycl@cl@@@detail@sycl@cl@@@std@@@std@@QEAA@XZ
pdata	ENDS
;	COMDAT pdata
pdata	SEGMENT
$pdata$?get@?$unique_ptr@V?$typed_allocator@HV?$aligned_allocator@H@aligned_mem@detail@sycl@cl@@@detail@sycl@cl@@U?$default_delete@V?$typed_allocator@HV?$aligned_allocator@H@aligned_mem@detail@sycl@cl@@@detail@sycl@cl@@@std@@@std@@QEBAPEAV?$typed_allocator@HV?$aligned_allocator@H@aligned_mem@detail@sycl@cl@@@detail@sycl@cl@@XZ DD imagerel $LN3
	DD	imagerel $LN3+49
	DD	imagerel $unwind$?get@?$unique_ptr@V?$typed_allocator@HV?$aligned_allocator@H@aligned_mem@detail@sycl@cl@@@detail@sycl@cl@@U?$default_delete@V?$typed_allocator@HV?$aligned_allocator@H@aligned_mem@detail@sycl@cl@@@detail@sycl@cl@@@std@@@std@@QEBAPEAV?$typed_allocator@HV?$aligned_allocator@H@aligned_mem@detail@sycl@cl@@@detail@sycl@cl@@XZ
